******************************************************************************
                  TI ARM Linker PC v16.9.6                     
******************************************************************************
>> Linked Sun Oct 31 16:22:45 2021

OUTPUT FILE NAME:   <area_scanner_68xx_mss_isk.xer4f>
ENTRY POINT SYMBOL: "_c_int00"  address: 0001f30c


MEMORY CONFIGURATION

         name            origin    length      used     unused   attr    fill
----------------------  --------  ---------  --------  --------  ----  --------
PAGE 0:
  VECTORS               00000000   00000100  0000003c  000000c4     X
  PROG_RAM              00000100   0007ff00  000280c6  00057e3a  R  X
  DATA_RAM              08000000   00030000  000229f4  0000d60c  RW  
  L3_RAM                51000000   000bff00  000bff00  00000000  RW  
  L3SRAM_CODE           510bff00   00000100  00000000  00000100  R   
  HWA_RAM               52030000   00010000  00000000  00010000  RW  
  HS_RAM                52080000   00008000  00000000  00008000  RW  

PAGE 1:
  L3_RAM                51000000   000bff00  00000000  000bff00  RW  


SEGMENT ALLOCATION MAP

run origin  load origin   length   init length attrs members
----------  ----------- ---------- ----------- ----- -------
00000000    00000000    0000003c   0000003c    r--
  00000000    00000000    0000003c   0000003c    r-- .vecs
00000100    00000100    000280d0   000280d0    r-x
  00000100    00000100    00025762   00025762    r-x .text
  00025868    00025868    0000230c   0000230c    r-- .const
  00027b78    00027b78    00000658   00000658    r-- .cinit
08000000    08000000    000229f8   00000000    rw-
  08000000    08000000    0001b000   00000000    rw- systemHeap
  0801b000    0801b000    0000381c   00000000    rw- .bss
  0801e820    0801e820    000021d8   00000000    rw- .data
  080209f8    080209f8    00001000   00000000    rw- .dpcLocalRam
  080219f8    080219f8    00000800   00000000    rw- .myFiqStack
  080221f8    080221f8    00000800   00000000    rw- .stack
51000000    51000000    000bff00   00000000    rw-
  51000000    51000000    000bff00   00000000    rw- .l3ram


SECTION ALLOCATION MAP

 output                                  attributes/
section   page    origin      length       input sections
--------  ----  ----------  ----------   ----------------
systemHeap 
*          0    08000000    0001b000     UNINITIALIZED
                  08000000    0001b000     mmw_mss_per4ft.oer4ft (systemHeap)

.dpcLocalRam 
*          0    080209f8    00001000     UNINITIALIZED
                  080209f8    00001000     mss_main.oer4f (.dpcLocalRam)

.vecs      0    00000000    0000003c     
                  00000000    0000003c     mmw_mss_per4ft.oer4ft (.vecs)

.text      0    00000100    00025762     
                  00000100    0000107a     rtsv7R4_T_le_v3D16_eabi.lib : _printfi.obj (.text)
                  0000117a    00000002     libadcbuf_xwr68xx.aer4f : adcbuf_mmwave.oer4f (.text:ADCBUF_MMWave_init)
                  0000117c    00000c3c     libgtrack3D.aer4f : gtrack_unit_update.oer4f (.text:gtrack_unitUpdate)
                  00001db8    000009f8     mss_main.oer4f (.text:MmwDemo_dataPathConfig)
                  000027b0    000008ce     mmw_cli.oer4f (.text:MmwDemo_CLIInit)
                  0000307e    00000002     libhwa_xwr68xx.aer4f : hwa.oer4f (.text:HWA_init)
                  00003080    00000680     mss_main.oer4f (.text:MmwDemo_initTask)
                  00003700    00000658     libhwa_xwr68xx.aer4f : hwa.oer4f (.text:HWA_configParamSet)
                  00003d58    000005fc     rtsv7R4_T_le_v3D16_eabi.lib : k_rem_pio2.obj (.text)
                  00004354    000005d4     mss_main.oer4f (.text:MmwDemo_handleObjectDetResult)
                  00004928    00000590     rtsv7R4_T_le_v3D16_eabi.lib : e_powf.obj (.text)
                  00004eb8    00000564     librangeproc_hwa_xwr68xx.aer4f : rangeprochwa.oer4f (.text:DPU_RangeProcHWA_process)
                  0000541c    00000558     mss_main.oer4f (.text:MmwDemo_transmitProcessedOutput)
                  00005974    00000518     libgtrack3D.aer4f : gtrack_create.oer4f (.text:gtrack_create)
                  00005e8c    00000004     libosal_xwr68xx.aer4f : HwiP_tirtos.oer4f (.text:HwiP_disableInterrupt)
                  00005e90    000004e1     sysbios.aer4ft : BIOS.obj (.text:xdc_runtime_System_doPrint__I)
                  00006371    00000001     --HOLE-- [fill = 0]
                  00006372    00000002     libmmwave_xwr68xx.aer4f : mmwave_link.oer4f (.text:MMWave_maskHostIRQ)
                  00006374    000004a8     libadcbuf_xwr68xx.aer4f : adcbuf_mmwave.oer4f (.text:ADCBUF_MMWave_control)
                  0000681c    00000465     libgtrack3D.aer4f : gtrack_unit_update.oer4f (.text:gtrack_velocityStateHandling)
                  00006c81    00000001     --HOLE-- [fill = 0]
                  00006c82    00000002     libqspiflash_xwr68xx.aer4f : qspiflash.oer4f (.text:QSPIFlash_init)
                  00006c84    0000044c     mmw_cli.oer4f (.text:MmwDemo_CLISensorStart)
                  000070d0    0000043c     librangeproc_hwa_xwr68xx.aer4f : rangeprochwa.oer4f (.text:DPU_RangeProcHWA_config)
                  0000750c    0000043c     mmwdemo_rfparser.oer4f (.text:MmwDemo_RFParser_parseCtrlConfig)
                  00007948    00000410     libcli_xwr68xx.aer4f : cli_mmwave.oer4f (.text:CLI_MMWaveVersion)
                  00007d58    000003f4     rtsv7R4_T_le_v3D16_eabi.lib : s_cos.obj (.text)
                  0000814c    00000388     mss_main.oer4f (.text:MmwDemo_DPC_ObjectDetection_reportFxn)
                  000084d4    00000332     libgtrack3D.aer4f : gtrack_utilities_3d.oer4f (.text:gtrack_matrixInv)
                  00008806    00000002     libqspi_xwr68xx.aer4f : qspi.oer4f (.text:QSPI_init)
                  00008808    00000328     mss_main.oer4f (.text:MmwDemo_processPendingDynamicCfgCommands)
                  00008b30    00000314     libsoc_xwr68xx.aer4f : soc_xwr68xx_mss.oer4f (.text:SOC_deviceInit)
                  00008e44    00000314     rtsv7R4_T_le_v3D16_eabi.lib : s_tanf.obj (.text)
                  00009158    00000304     librangeproc_hwa_xwr68xx.aer4f : rangeprochwa.oer4f (.text:rangeProcHWA_ConfigEDMA_DataOut_nonInterleave)
                  0000945c    000002f8     libcbuff_xwr68xx.aer4f : cbuff.oer4f (.text:CBUFF_createSession)
                  00009754    0000000c     libedma_xwr68xx.aer4f : edma_low_level.oer4f (.text:EDMA3ChannelToParamMap)
                  00009760    000002f4     sysbios.aer4ft : BIOS.obj (.text:ti_sysbios_knl_Semaphore_pend__E)
                  00009a54    0000000c     libedma_xwr68xx.aer4f : edma_low_level.oer4f (.text:EDMAsetRegion)
                  00009a60    000002cc     sysbios.aer4ft : BIOS.obj (.text:ti_sysbios_knl_Task_Instance_finalize__E)
                  00009d2c    000002c8     mss_main.oer4f (.text:MmwDemo_sensorStopEpilog)
                  00009ff4    000002c4     libhwa_xwr68xx.aer4f : hwa.oer4f (.text:HWA_configCommon)
                  0000a2b8    000002b8     rtsv7R4_T_le_v3D16_eabi.lib : ull_div32.obj (.text)
                  0000a570    000002a8     objdetrangehwa.oer4f (.text:DPC_ObjDetRangeHwa_rangeConfig)
                  0000a818    00000008     libosal_xwr68xx.aer4f : HwiP_tirtos.oer4f (.text:HwiP_disable)
                  0000a820    000002a4     sysbios.aer4ft : BIOS.obj (.text:ti_sysbios_heaps_HeapMem_freeUnprotected__E)
                  0000aac4    00000288     objdetrangehwa.oer4f (.text:DPC_ObjectDetection_ioctl)
                  0000ad4c    00000288     mmw_lvds_stream.oer4f (.text:MmwDemo_LVDSStreamHwConfig)
                  0000afd4    00000284     libmmwave_xwr68xx.aer4f : mmwave_dualcore.oer4f (.text:MMWave_deviceExecuteFxn)
                  0000b258    00000280     libhsiheader_xwr68xx.aer4f : hsiheader.oer4f (.text:HSIHeader_createHeader)
                  0000b4d8    00000008     libmmwave_xwr68xx.aer4f : mmwave.oer4f (.text:MMWave_decodeErrorLevel)
                  0000b4e0    00000280     sysbios.aer4ft : BIOS.obj (.text:ti_sysbios_family_arm_exc_Exception_excDumpContext__I)
                  0000b760    0000026c     libqspiflash_xwr68xx.aer4f : qspiflash.oer4f (.text:QSPIFlash_open)
                  0000b9cc    00000264     libcbuff_xwr68xx.aer4f : cbuff.oer4f (.text:CBUFF_init)
                  0000bc30    00000264     mss_main.oer4f (.text:MmwDemo_openSensor)
                  0000be94    00000260     libmailbox_xwr68xx.aer4f : mailbox.oer4f (.text:Mailbox_open)
                  0000c0f4    00000260     mss_main.oer4f (.text:MmwDemo_eventCallbackFxn)
                  0000c354    0000025a     libgtrack3D.aer4f : gtrack_module.oer4f (.text:gtrack_moduleAllocate)
                  0000c5ae    00000002     libuart_xwr68xx.aer4f : uartsci.oer4f (.text:UartSci_init)
                  0000c5b0    00000254     libcli_xwr68xx.aer4f : cli_mmwave.oer4f (.text:CLI_MMWaveProfileCfg)
                  0000c804    00000250     mss_main.oer4f (.text:MmwDemo_stopSensor)
                  0000ca54    0000022c     libcbuff_xwr68xx.aer4f : cbuff_lvds.oer4f (.text:CBUFF_openLVDS)
                  0000cc80    0000022c     librangeproc_hwa_xwr68xx.aer4f : rangeprochwa.oer4f (.text:rangeProcHWA_ConfigHWA)
                  0000ceac    00000004     libosal_xwr68xx.aer4f : HwiP_tirtos.oer4f (.text:HwiP_enableInterrupt)
                  0000ceb0    00000228     sysbios.aer4ft : BIOS.obj (.text:ti_sysbios_heaps_HeapMem_allocUnprotected__E)
                  0000d0d8    00000008     libmmwave_xwr68xx.aer4f : mmwave_link.oer4f (.text:MMWave_mboxCallbackFxn)
                  0000d0e0    00000224     sysbios.aer4ft : BIOS.obj (.text:ti_sysbios_timers_rti_Timer_Module_startup__E)
                  0000d304    00000214     libuart_xwr68xx.aer4f : uartsci.oer4f (.text:UartSci_open)
                  0000d518    0000020a     libcbuff_xwr68xx.aer4f : cbuff_transfer.oer4f (.text:CBUFF_addLinkedList)
                  0000d722    00000002     rtsv7R4_T_le_v3D16_eabi.lib : i_div0.obj (.text)
                  0000d724    00000204     libcli_xwr68xx.aer4f : cli_mmwave.oer4f (.text:CLI_MMWaveChirpCfg)
                  0000d928    00000008     libosal_xwr68xx.aer4f : MemoryP_tirtos.oer4f (.text:MemoryP_getStats)
                  0000d930    00000204     sysbios.aer4ft : BIOS.obj (.text:ti_sysbios_knl_Task_sleep__E)
                  0000db34    00000200     libcrc_xwr68xx.aer4f : crc.oer4f (.text:CRC_open)
                  0000dd34    00000200     mss_main.oer4f (.text:MmwDemo_startSensor)
                  0000df34    0000000c     libmmwave_xwr68xx.aer4f : mmwave_dualcore.oer4f (.text:MMWave_deviceMailboxCallbackFxn)
                  0000df40    00000200     sysbios.aer4ft : BIOS.obj (.text:ti_sysbios_knl_Task_Instance_init__E)
                  0000e140    000001fc     libgtrack3D.aer4f : gtrack_step.oer4f (.text:gtrack_step)
                  0000e33c    000001fa                       : gtrack_unit_predict.oer4f (.text:gtrack_unitPredict)
                  0000e536    00000002     mmw_mss_per4ft.oer4ft (.text:ti_sysbios_BIOS_nullFunc__I)
                  0000e538    000001f0     libdma_xwr68xx.aer4f : dma.oer4f (.text:DMA_setChannelParams)
                  0000e728    000001e8     mss_main.oer4f (.text:MmwDemo_transferLVDSUserData)
                  0000e910    000001e4     libgtrack3D.aer4f : gtrack_utilities.oer4f (.text:gtrack_computeJacobian)
                  0000eaf4    000001e4     rtsv7R4_T_le_v3D16_eabi.lib : e_logf.obj (.text)
                  0000ecd8    000001e4                                 : strtod.obj (.text)
                  0000eebc    000001d5     libgtrack3D.aer4f : gtrack_unit_score.oer4f (.text:gtrack_unitScore)
                  0000f091    00000001     --HOLE-- [fill = 0]
                  0000f092    00000002     mmw_mss_per4ft.oer4ft (.text:xdc_runtime_Startup_reset__I)
                  0000f094    000001d4     libcbuff_xwr68xx.aer4f : cbuff_edma.oer4f (.text:CBUFF_configEDMA)
                  0000f268    000001d0     objdetrangehwa.oer4f (.text:DPC_ObjectDetection_init)
                  0000f438    000001cc     mss_main.oer4f (.text:main)
                  0000f604    0000000c     libmmwave_xwr68xx.aer4f : mmwave_osal.oer4f (.text:MMWave_osalMutexUnlock)
                  0000f610    000001cc     sysbios.aer4ft : BIOS.obj (.text:ti_sysbios_family_arm_v7r_vim_Hwi_dispatchIRQC__I)
                  0000f7dc    000001c8     libcbuff_xwr68xx.aer4f : cbuff_lvds.oer4f (.text:CBUFF_initLVDS)
                  0000f9a4    000001c8     libmmwavelink_xwr68xx.aer4f : rl_driver.oer4f (.text:rlDriverRxHdrRead)
                  0000fb6c    000001c8     rtsv7R4_T_le_v3D16_eabi.lib : fopen.obj (.text)
                  0000fd34    000001c2     objdetrangehwa.oer4f (.text:DPC_ObjectDetection_execute)
                  0000fef6    00000002     --HOLE-- [fill = 0]
                  0000fef8    000001c0     libedma_xwr68xx.aer4f : edma.oer4f (.text:EDMA_open)
                  000100b8    000001b0     mmw_lvds_stream.oer4f (.text:MmwDemo_LVDSStreamInit)
                  00010268    000001b0     libmmwavelink_xwr68xx.aer4f : rl_driver.oer4f (.text:rlDriverMsgRead)
                  00010418    000001ac     libgtrack3D.aer4f : gtrack_unit_start.oer4f (.text:gtrack_unitStart)
                  000105c4    000001a8     mss_main.oer4f (.text:MmwDemo_bpmConfig)
                  0001076c    000001a4     libcbuff_xwr68xx.aer4f : cbuff.oer4f (.text:CBUFF_activateSession)
                  00010910    000001a4     libcli_xwr68xx.aer4f : cli_mmwave.oer4f (.text:CLI_MMWaveSubFrameCfg)
                  00010ab4    000001a4     libmmwave_xwr68xx.aer4f : mmwave_dualcore.oer4f (.text:MMWave_serializeCfg)
                  00010c58    0000019c     tracker_utils.oer4f (.text:MmwDemo_CLITrackingCfg)
                  00010df4    0000000c     libmmwave_xwr68xx.aer4f : mmwave_osal.oer4f (.text:MMWave_osalSemSignal)
                  00010e00    0000019c     sysbios.aer4ft : BIOS.obj (.text:xdc_runtime_Error_policyDefault__E)
                  00010f9c    0000019b     libgtrack3D.aer4f : gtrack_unit_event.oer4f (.text:gtrack_unitEvent)
                  00011137    00000001     --HOLE-- [fill = 0]
                  00011138    00000194     libmmwave_xwr68xx.aer4f : mmwave_link.oer4f (.text:MMWave_openLink)
                  000112cc    00000190     libmmwavelink_xwr68xx.aer4f : rl_driver.oer4f (.text:rlDriverCmdInvoke)
                  0001145c    00000188     libtrackerproc_xwr68xx.aer4f : trackerproc_3d.oer4f (.text:DPU_TrackerProc_process)
                  000115e4    00000188     libedma_xwr68xx.aer4f : edma.oer4f (.text:EDMA_configChannel)
                  0001176c    00000188     libhwa_xwr68xx.aer4f : hwa.oer4f (.text:HWA_open)
                  000118f4    00000188     mmw_lvds_stream.oer4f (.text:MmwDemo_LVDSStreamDeleteHwSession)
                  00011a7c    00000184     libtrackerproc_xwr68xx.aer4f : trackerproc_3d.oer4f (.text:DPU_TrackerProc_config)
                  00011c00    00000184     sysbios.aer4ft : BIOS.obj (.text:xdc_runtime_LoggerBuf_write8__E)
                  00011d84    00000180     libdpm_xwr68xx.aer4f : dpm_core.oer4f (.text:DPM_init)
                  00011f04    00000180                          : dpm_msg.oer4f (.text:DPM_msgRecv)
                  00012084    00000180     mmwdemo_rfparser.oer4f (.text:MmwDemo_RFParser_setAoAParams)
                  00012204    0000017c     mmw_lvds_stream.oer4f (.text:MmwDemo_LVDSStreamDeleteSwSession)
                  00012380    00000170     libgpio_xwr68xx.aer4f : gpio.oer4f (.text:GPIO_setConfig)
                  000124f0    0000016c     sysbios.aer4ft : BIOS.obj (.text:ti_sysbios_knl_Semaphore_post__E)
                  0001265c    00000004     libmmwave_xwr68xx.aer4f : mmwave_link.oer4f (.text:MMWave_disableDevice)
                  00012660    00000168     sysbios.aer4ft : BIOS.obj (.text:ti_sysbios_family_arm_exc_Exception_excHandler__I)
                  000127c8    00000164     mmw_lvds_stream.oer4f (.text:MmwDemo_LVDSStreamSwConfig)
                  0001292c    00000160     libqspi_xwr68xx.aer4f : qspi.oer4f (.text:QSPI_open)
                  00012a8c    00000004     libmmwave_xwr68xx.aer4f : mmwave_link.oer4f (.text:MMWave_enableDevice)
                  00012a90    00000160     sysbios.aer4ft : BIOS.obj (.text:ti_sysbios_family_arm_v7r_vim_Hwi_reconfig__E)
                  00012bf0    00000158                    : BIOS.obj (.text:ti_sysbios_knl_Task_postInit__I)
                  00012d48    00000154     rtsv7R4_T_le_v3D16_eabi.lib : s_atanf.obj (.text)
                  00012e9c    0000014c     libcli_xwr68xx.aer4f : cli_mmwave.oer4f (.text:CLI_MMWaveFrameCfg)
                  00012fe8    0000014c                          : cli.oer4f (.text:CLI_task)
                  00013134    0000014c     libmmwave_xwr68xx.aer4f : mmwave_link.oer4f (.text:MMWave_initMMWaveLink)
                  00013280    0000014a     libuart_xwr68xx.aer4f : uartsci.oer4f (.text:UartSci_ISR)
                  000133ca    00000002     --HOLE-- [fill = 0]
                  000133cc    00000149     mss_main.oer4f (.text:MmwDemo_setSubFramePendingState)
                  00013515    00000003     --HOLE-- [fill = 0]
                  00013518    00000148     libhsiheader_xwr68xx.aer4f : hsiheader.oer4f (.text:HSIHeader_init)
                  00013660    00000148     mmw_cli.oer4f (.text:MmwDemo_CLILvdsStreamCfg)
                  000137a8    00000148     libmmwavelink_xwr68xx.aer4f : rl_driver.oer4f (.text:rlDriverCmdSendRetry)
                  000138f0    00000144     mmw_lvds_stream.oer4f (.text:MmwDemo_configLVDSHwData)
                  00013a34    00000144     mss_main.oer4f (.text:MmwDemo_configSensor)
                  00013b78    00000008     libosal_xwr68xx.aer4f : SemaphoreP_tirtos.oer4f (.text:SemaphoreP_Params_init)
                  00013b80    00000140     sysbios.aer4ft : BIOS.obj (.text:ti_sysbios_heaps_HeapMem_Instance_init__E)
                  00013cc0    00000140                    : BIOS.obj (.text:xdc_runtime_Core_createObject__I)
                  00013e00    0000013c                    : BIOS.obj (.text:ti_sysbios_knl_Clock_workFunc__E)
                  00013f3c    00000134     libadcbuf_xwr68xx.aer4f : adcbuf_mmwave.oer4f (.text:ADCBUF_MMWave_open)
                  00014070    00000134     sysbios.aer4ft : BIOS.obj (.text:xdc_runtime_Startup_startMods__I)
                  000141a4    00000130     libgtrack3D.aer4f : gtrack_utilities.oer4f (.text:gtrack_cartesian2spherical)
                  000142d4    0000012c     mmw_cli.oer4f (.text:MmwDemo_CLIBpmCfg)
                  00014400    0000012c     librangeproc_hwa_xwr68xx.aer4f : rangeprochwa.oer4f (.text:rangeProcHWA_ConfigEDMADummyThreeLinks)
                  0001452c    00000128     libmathutils.aer4f : mathutils.oer4f (.text:mathUtils_genWindow)
                  00014654    0000000c     libuart_xwr68xx.aer4f : UART.oer4f (.text:UART_Params_init)
                  00014660    00000128     sysbios.aer4ft : BIOS.obj (.text:ti_sysbios_utils_Load_updateThreadContexts__E)
                  00014788    00000124     libcli_xwr68xx.aer4f : cli_mmwave.oer4f (.text:CLI_MMWaveAdvFrameCfg)
                  000148ac    00000124                          : cli_mmwave.oer4f (.text:CLI_MMWaveContModeCfg)
                  000149d0    00000124     libedma_xwr68xx.aer4f : edma.oer4f (.text:EDMA_init)
                  00014af4    00000124     mss_main.oer4f (.text:init_qspiflash)
                  00014c18    00000008     libgtrack3D.aer4f : gtrack_unit_delete.oer4f (.text:gtrack_unitDelete)
                  00014c20    00000120     sysbios.aer4ft : BIOS.obj (.text:xdc_runtime_LoggerBuf_write4__E)
                  00014d40    00000118                    : BIOS.obj (.text:ti_sysbios_family_arm_v7r_vim_Hwi_Instance_init__E)
                  00014e58    00000116     mmw_cli.oer4f (.text:MmwDemo_CLICalibDcRangeSig)
                  00014f6e    00000002     --HOLE-- [fill = 0]
                  00014f70    00000114     libedma_xwr68xx.aer4f : edma.oer4f (.text:EDMA_configErrorMonitoring)
                  00015084    00000114     mmw_cli.oer4f (.text:MmwDemo_staticDetectionCfg)
                  00015198    00000110     libedma_xwr68xx.aer4f : edma.oer4f (.text:EDMA_transferComplete_isr)
                  000152a8    00000110     mmw_cli.oer4f (.text:MmwDemo_CLIAnalogMonitorCfg)
                  000153b8    0000010c     libdpedma_hwa_xwr68xx.aer4f : dpedma.oer4f (.text:DPEDMA_configSyncAB)
                  000154c4    0000010c     libdpm_xwr68xx.aer4f : dpm_msg.oer4f (.text:DPM_msgResultHandler)
                  000155d0    0000010c     libmmwave_xwr68xx.aer4f : mmwave_link.oer4f (.text:MMWave_asyncEventHandler)
                  000156dc    0000010c                             : mmwave_dualcore.oer4f (.text:MMWave_deviceInitFxn)
                  000157e8    00000008     librangeproc_hwa_xwr68xx.aer4f : rangeprochwa.oer4f (.text:rangeProcHWADoneIsrCallback)
                  000157f0    0000010c     sysbios.aer4ft : BIOS.obj (.text:ti_sysbios_knl_Task_schedule__I)
                  000158fc    00000004     libmmwave_xwr68xx.aer4f : mmwave_listlib.oer4f (.text:MMWave_listGetHead)
                  00015900    0000010c     sysbios.aer4ft : BIOS.obj (.text:xdc_runtime_Core_constructObject__I)
                  00015a0c    00000108     libdma_xwr68xx.aer4f : dma.oer4f (.text:DMA_disableInterrupt)
                  00015b14    00000108     libmailbox_xwr68xx.aer4f : mailbox.oer4f (.text:Mailbox_write)
                  00015c1c    00000108     mmw_cli.oer4f (.text:MmwDemo_CLICfarCfg)
                  00015d24    00000104     libcbuff_xwr68xx.aer4f : cbuff.oer4f (.text:CBUFF_deinit)
                  00015e28    00000104     libdpedma_hwa_xwr68xx.aer4f : dpedma.oer4f (.text:DPEDMA_configSyncA_singleFrame)
                  00015f2c    00000104     libmmwave_xwr68xx.aer4f : mmwave_link.oer4f (.text:MMWave_startLink)
                  00016030    00000104     mmw_cli.oer4f (.text:MmwDemo_CLIChirpQualityRxSatMonCfg)
                  00016134    00000104     mmw_cli.oer4f (.text:MmwDemo_CLICompRangeBiasAndRxChanPhaseCfg)
                  00016238    00000008     libmmwavelink_xwr68xx.aer4f : rl_driver.oer4f (.text:rlDriverConstructOutMsg)
                  00016240    00000104     sysbios.aer4ft : BIOS.obj (.text:ti_sysbios_timers_rti_Timer_getFreq__E)
                  00016344    00000100     libcli_xwr68xx.aer4f : cli_mmwave.oer4f (.text:CLI_MMWaveBPMCfgAdvanced)
                  00016444    00000100     libdma_xwr68xx.aer4f : dma.oer4f (.text:DMA_clearChannelInterruptFlag)
                  00016544    00000100     libgtrack3D.aer4f : gtrack_utilities.oer4f (.text:gtrack_spherical2cartesian)
                  00016644    00000100     libmmwavelink_xwr68xx.aer4f : rl_driver.oer4f (.text:rlDriverInit)
                  00016744    000000fc     libcbuff_xwr68xx.aer4f : cbuff.oer4f (.text:CBUFF_deleteSession)
                  00016840    000000fc     libcrc_xwr68xx.aer4f : crc.oer4f (.text:CRC_computeSignature)
                  0001693c    000000fc     mmw_cli.oer4f (.text:MmwDemo_CLIADCBufCfg)
                  00016a38    000000fc     mss_main.oer4f (.text:MmwDemo_edmaOpen)
                  00016b34    0000000c     libuart_xwr68xx.aer4f : uartsci_dma.oer4f (.text:UartSci_isDMAEnabled)
                  00016b40    000000fc     sysbios.aer4ft : BIOS.obj (.text:ti_sysbios_knl_Task_exit__E)
                  00016c3c    000000f8     libmmwavelink_xwr68xx.aer4f : rl_driver.oer4f (.text:rlDriverRdVerifyMsg)
                  00016d34    000000f8     mmw_mss_per4ft.oer4ft (.text:xdc_runtime_System_printfExtend__I)
                  00016e2c    00000004     libmmwave_xwr68xx.aer4f : mmwave_listlib.oer4f (.text:MMWave_listGetNext)
                  00016e30    000000f0     sysbios.aer4ft : BIOS.obj (.text:ti_sysbios_family_arm_v7r_vim_Hwi_Module_startup__E)
                  00016f20    000000f0                    : BIOS.obj (.text:ti_sysbios_knl_Task_startCore__E)
                  00017010    000000f0                    : BIOS.obj (.text:ti_sysbios_utils_Load_taskCreateHook__E)
                  00017100    000000ed     objdetrangehwa.oer4f (.text:DPC_ObjectDetection_frameStart)
                  000171ed    00000003     --HOLE-- [fill = 0]
                  000171f0    000000ec     rtsv7R4_T_le_v3D16_eabi.lib : s_scalbn.obj (.text)
                  000172dc    00000004     libmmwave_xwr68xx.aer4f : mmwave_link.oer4f (.text:MMWave_mboxClose)
                  000172e0    000000ec     sysbios.aer4ft : BIOS.obj (.text:ti_sysbios_heaps_HeapBuf_Module_startup__E)
                  000173cc    000000ea     libdpedma_hwa_xwr68xx.aer4f : dpedmahwa.oer4f (.text:DPEDMAHWA_configTwoHotSignature)
                  000174b6    00000002     --HOLE-- [fill = 0]
                  000174b8    000000e8     mmw_cli.oer4f (.text:MmwDemo_CLIChirpQualitySigImgMonCfg)
                  000175a0    000000e4     libmmwavelink_xwr68xx.aer4f : rl_sensor.oer4f (.text:rlRfPhShiftCalibDataRestore)
                  00017684    000000e2     libedma_xwr68xx.aer4f : edma.oer4f (.text:EDMA_paramConfig_assist)
                  00017766    00000002     --HOLE-- [fill = 0]
                  00017768    000000e0     libcli_xwr68xx.aer4f : cli.oer4f (.text:CLI_open)
                  00017848    000000e0     libdma_xwr68xx.aer4f : dma.oer4f (.text:DMA_enableInterrupt)
                  00017928    000000e0     libgtrack3D.aer4f : gtrack_unit_create.oer4f (.text:gtrack_unitCreate)
                  00017a08    000000e0     rtsv7R4_T_le_v3D16_eabi.lib : s_floor.obj (.text)
                  00017ae8    000000dc     libmmwave_xwr68xx.aer4f : mmwave.oer4f (.text:MMWave_init)
                  00017bc4    000000dc     libmmwavelink_xwr68xx.aer4f : rl_driver.oer4f (.text:rlDriverMsgCmdReply)
                  00017ca0    000000dc     rtsv7R4_T_le_v3D16_eabi.lib : setvbuf.obj (.text)
                  00017d7c    000000d9     objdetrangehwa.oer4f (.text:DPC_ObjectDetection_start)
                  00017e55    00000003     --HOLE-- [fill = 0]
                  00017e58    000000d4     libmailbox_xwr68xx.aer4f : mailbox.oer4f (.text:Mailbox_read)
                  00017f2c    000000d4     librangeproc_hwa_xwr68xx.aer4f : rangeprochwa.oer4f (.text:rangeProcHWA_ConfigEDMA_DataIn)
                  00018000    000000d4     libmmwavelink_xwr68xx.aer4f : rl_sensor.oer4f (.text:rlSetMultiBpmChirpConfig)
                  000180d4    000000d4     rtsv7R4_T_le_v3D16_eabi.lib : s_scalbnf.obj (.text)
                  000181a8    00000008     libmmwavelink_xwr68xx.aer4f : rl_driver.oer4f (.text:rlDriverGetHandle)
                  000181b0    000000d4     sysbios.aer4ft : BIOS.obj (.text:ti_sysbios_utils_Load_logLoads__I)
                  00018284    000000d2     libgtrack3D.aer4f : gtrack_math.oer4f (.text:gtrack_matrixPrint2)
                  00018356    00000002     --HOLE-- [fill = 0]
                  00018358    000000d0     librangeproc_hwa_xwr68xx.aer4f : rangeprochwa.oer4f (.text:DPU_RangeProcHWA_control)
                  00018428    000000d0     libsoc_xwr68xx.aer4f : soc_xwr68xx_mss.oer4f (.text:SOC_controlSecureFirewall)
                  000184f8    000000d0     sysbios.aer4ft : exc_Exception_asm.obj (.text:ti_sysbios_family_arm_exc_Exception_excHandlerAsm__I)
                  000185c8    00000008                    : BIOS.obj (.text:ti_sysbios_family_arm_v7a_Pmu_getEnabled__E)
                  000185d0    000000d0                    : BIOS.obj (.text:ti_sysbios_utils_Load_idleFxn__E)
                  000186a0    000000d0                    : BIOS.obj (.text:xdc_runtime_LoggerBuf_Instance_init__E)
                  00018770    000000cc     libhwa_xwr68xx.aer4f : hwa.oer4f (.text:HWA_enableParamSetInterrupt)
                  0001883c    000000cc     libmmwavelink_xwr68xx.aer4f : rl_sensor.oer4f (.text:rlRfCalibDataRestore)
                  00018908    000000cc                                 : rl_sensor.oer4f (.text:rlSetChirpConfig)
                  000189d4    000000cc     rtsv7R4_T_le_v3D16_eabi.lib : fflush.obj (.text)
                  00018aa0    000000cc     sysbios.aer4ft : BIOS.obj (.text:ti_sysbios_knl_Task_checkStacks__E)
                  00018b6c    000000c8     libmmwave_xwr68xx.aer4f : mmwave_fullcfg.oer4f (.text:MMWave_addChirp)
                  00018c34    000000c8                             : mmwave_link.oer4f (.text:MMWave_configBPM)
                  00018cfc    000000c8                             : mmwave_fullcfg.oer4f (.text:MMWave_flushCfg)
                  00018dc4    000000c8                             : mmwave_fullcfg.oer4f (.text:MMWave_getChirpHandle)
                  00018e8c    000000c8     mmw_lvds_stream.oer4f (.text:MmwDemo_LVDSStream_SwTriggerFrameDone)
                  00018f54    000000c8     libsoc_xwr68xx.aer4f : soc_xwr68xx.oer4f (.text:SOC_ungateClock)
                  0001901c    000000c8     libmmwavelink_xwr68xx.aer4f : rl_sensor.oer4f (.text:rlSetFrameConfig)
                  000190e4    000000c4     libcbuff_xwr68xx.aer4f : cbuff_transfer.oer4f (.text:CBUFF_setupNonInterleaved_CP_ADC_CQ)
                  000191a8    000000c4     libdpm_xwr68xx.aer4f : dpm_core.oer4f (.text:DPM_deinit)
                  0001926c    000000c4                          : dpm_core.oer4f (.text:DPM_ioctl)
                  00019330    000000c4     sysbios.aer4ft : BIOS.obj (.text:ti_sysbios_family_arm_v7a_Pmu_configureCounter__E)
                  000193f4    000000c0     librangeproc_hwa_xwr68xx.aer4f : rangeprochwa.oer4f (.text:DPU_RangeProcHWA_init)
                  000194b4    000000c0     mmw_cli.oer4f (.text:MmwDemo_heatmapGenCfg)
                  00019574    000000c0     mss_main.oer4f (.text:MmwDemo_isAllCfgInPendingState)
                  00019634    000000c0     libmmwavelink_xwr68xx.aer4f : rl_driver.oer4f (.text:rlDriverMsgWrite)
                  000196f4    0000000c     sysbios.aer4ft : arm_IntrinsicsSupport_asm.obj (.text:_ti_sysbios_family_arm_IntrinsicsSupport_maxbitA)
                  00019700    000000c0                    : BIOS.obj (.text:ti_sysbios_timers_rti_Timer_startup__E)
                  000197c0    000000bc     libcli_xwr68xx.aer4f : cli.oer4f (.text:CLI_help)
                  0001987c    000000bc     libgpio_xwr68xx.aer4f : gpio.oer4f (.text:GPIO_write)
                  00019938    000000bc     libmmwave_xwr68xx.aer4f : mmwave_link.oer4f (.text:MMWave_computeCRC)
                  000199f4    000000bc     mmw_lvds_stream.oer4f (.text:MmwDemo_LVDSStream_EDMAInit)
                  00019ab0    000000bc     rtsv7R4_T_le_v3D16_eabi.lib : open.obj (.text)
                  00019b6c    000000b8     libcbuff_xwr68xx.aer4f : cbuff.oer4f (.text:CBUFF_ISR)
                  00019c24    000000b8                            : cbuff_transfer.oer4f (.text:CBUFF_setupTransfer)
                  00019cdc    000000b8     libdma_xwr68xx.aer4f : dma.oer4f (.text:DMA_getChannelInterruptFlag)
                  00019d94    000000b8     mmw_lvds_stream.oer4f (.text:MmwDemo_LVDSStream_EDMAFreeCBUFFHwChannel)
                  00019e4c    000000b8     mmw_lvds_stream.oer4f (.text:MmwDemo_LVDSStream_EDMAFreeCBUFFSwChannel)
                  00019f04    000000b8     mmw_lvds_stream.oer4f (.text:MmwDemo_LVDSStream_HwTriggerFrameDone)
                  00019fbc    000000b8     rtsv7R4_T_le_v3D16_eabi.lib : k_cos.obj (.text)
                  0001a074    000000b6     libsoc_xwr68xx.aer4f : soc_mpu.o (.text)
                  0001a12a    00000006     libosal_xwr68xx.aer4f : CycleprofilerP_tirtos.oer4f (.text:CycleprofilerP_getTimeStamp)
                  0001a130    000000b4     sysbios.aer4ft : BIOS.obj (.text:ti_sysbios_gates_GateMutex_enter__E)
                  0001a1e4    0000000c     rtsv7R4_T_le_v3D16_eabi.lib : copy_zero_init.obj (.text:decompress:ZI)
                  0001a1f0    000000b4     sysbios.aer4ft : BIOS.obj (.text:xdc_runtime_LoggerBuf_setFilterLevel__E)
                  0001a2a4    000000b2     libuart_xwr68xx.aer4f : uartsci_dma.oer4f (.text:UartSci_openDMA)
                  0001a356    00000002     --HOLE-- [fill = 0]
                  0001a358    000000b0     libcbuff_xwr68xx.aer4f : cbuff.oer4f (.text:CBUFF_deactivateSession)
                  0001a408    000000b0     libmmwave_xwr68xx.aer4f : mmwave_fullcfg.oer4f (.text:MMWave_addProfile)
                  0001a4b8    000000b0     tracker_utils.oer4f (.text:MmwDemo_CLIBoundaryBoxCfg)
                  0001a568    000000b0     tracker_utils.oer4f (.text:MmwDemo_CLIStaticBoundaryBoxCfg)
                  0001a618    000000b0     mss_main.oer4f (.text:MmwDemo_isAllCfgInNonPendingState)
                  0001a6c8    000000b0     libgtrack3D.aer4f : gtrack_utilities_3d.oer4f (.text:gtrack_calcMeasurementLimits)
                  0001a778    000000b0     libmmwavelink_xwr68xx.aer4f : rl_sensor.oer4f (.text:rlSetProfileConfig)
                  0001a828    00000008     mmw_mss_per4ft.oer4ft (.text:xdc_runtime_Text_visitRope__I)
                  0001a830    000000b0     sysbios.aer4ft : BIOS.obj (.text:ti_sysbios_utils_Load_updateLoads__E)
                  0001a8e0    000000b0                    : BIOS.obj (.text:xdc_runtime_Text_putMod__E)
                  0001a990    000000ae     mmwdemo_adcconfig.oer4f (.text:MmwDemo_ADCBufConfig)
                  0001aa3e    000000ae     rtsv7R4_T_le_v3D16_eabi.lib : _io_perm.obj (.text)
                  0001aaec    000000ac     libesm_xwr68xx.aer4f : esm.oer4f (.text:ESM_processInterrupt)
                  0001ab98    000000ac     mss_main.oer4f (.text:MmwDemo_mmWaveCtrlTask)
                  0001ac44    0000000c     libmmwavelink_xwr68xx.aer4f : rl_driver.oer4f (.text:rlDriverGetPlatformId)
                  0001ac50    000000ac     sysbios.aer4ft : BIOS.obj (.text:ti_sysbios_knl_Task_Module_startup__E)
                  0001acfc    00000004     libmmwave_xwr68xx.aer4f : mmwave_link.oer4f (.text:MMWave_mboxRead)
                  0001ad00    000000ac     sysbios.aer4ft : BIOS.obj (.text:ti_sysbios_utils_Load_startup__E)
                  0001adac    000000a9     objdetrangehwa.oer4f (.text:DPC_ObjectDetection_stop)
                  0001ae55    00000003     --HOLE-- [fill = 0]
                  0001ae58    000000a8     libadcbuf_xwr68xx.aer4f : adcbuf_mmwave.oer4f (.text:ADCBUF_MMWave_getChanBufAddr)
                  0001af00    000000a8     libcli_xwr68xx.aer4f : cli_mmwave.oer4f (.text:CLI_MMWaveExtensionHelp)
                  0001afa8    000000a8     libedma_xwr68xx.aer4f : edma_low_level.oer4f (.text:EDMA3Init)
                  0001b050    000000a8     libmmwave_xwr68xx.aer4f : mmwave_link.oer4f (.text:MMWave_configureProfileChirp)
                  0001b0f8    000000a8                             : mmwave_fullcfg.oer4f (.text:MMWave_getBpmChirpHandle)
                  0001b1a0    000000a8     tracker_utils.oer4f (.text:MmwDemo_CLIAllocationParamCfg)
                  0001b248    000000a8     mss_main.oer4f (.text:MmwDemo_EDMA_errorCallbackFxn)
                  0001b2f0    000000a8     mss_main.oer4f (.text:MmwDemo_EDMA_transferControllerErrorCallbackFxn)
                  0001b398    000000a8     libpinmux_xwr68xx.aer4f : pinmux.oer4f (.text:Pinmux_Set_OverrideCtrl)
                  0001b440    000000a8     libsoc_xwr68xx.aer4f : soc.oer4f (.text:SOC_deregisterSysIntListener)
                  0001b4e8    000000a8     libgtrack3D.aer4f : gtrack_delete.oer4f (.text:gtrack_delete)
                  0001b590    000000a8     libmmwavelink_xwr68xx.aer4f : rl_driver.oer4f (.text:rlDriverWaitForResponse)
                  0001b638    000000a8                                 : rl_sensor.oer4f (.text:rlSetAdvFrameConfig)
                  0001b6e0    000000a6     libgtrack3D.aer4f : gtrack_utilities_3d.oer4f (.text:gtrack_computeMahalanobis)
                  0001b786    00000002     --HOLE-- [fill = 0]
                  0001b788    000000a4     libdma_xwr68xx.aer4f : dma.oer4f (.text:DMA_assignChannel)
                  0001b82c    000000a4     libesm_xwr68xx.aer4f : esm.oer4f (.text:ESM_init)
                  0001b8d0    000000a4     libmmwave_xwr68xx.aer4f : mmwave_fullcfg.oer4f (.text:MMWave_addBpmChirp)
                  0001b974    000000a4                             : mmwave.oer4f (.text:MMWave_start)
                  0001ba18    000000a4     libsoc_xwr68xx.aer4f : soc_xwr68xx_mss.oer4f (.text:SOC_unhaltDSS)
                  0001babc    000000a4     rtsv7R4_T_le_v3D16_eabi.lib : k_sin.obj (.text)
                  0001bb60    000000a2     sysbios.aer4ft : BIOS.obj (.text:xdc_runtime_Text_putSite__E)
                  0001bc02    00000002     --HOLE-- [fill = 0]
                  0001bc04    000000a0     libqspiflash_xwr68xx.aer4f : qspiflash_device_macronix.oer4f (.text:QSPIFlash_macronix_progQuadRead)
                  0001bca4    000000a0     libsoc_xwr68xx.aer4f : soc.oer4f (.text:SOC_registerSysIntListener)
                  0001bd44    000000a0     auto_init.aer4ft : auto_init.oer4ft (.text)
                  0001bde4    0000000c     sysbios.aer4ft : BIOS.obj (.text:ti_sysbios_family_arm_v7a_Pmu_configureCounterI__I)
                  0001bdf0    000000a0                    : BIOS.obj (.text:ti_sysbios_knl_Task_blockI__E)
                  0001be90    0000009c     libmmwave_xwr68xx.aer4f : mmwave_link.oer4f (.text:MMWave_configLink)
                  0001bf2c    0000009c                             : mmwave_fullcfg.oer4f (.text:MMWave_getProfileHandle)
                  0001bfc8    0000009c     tracker_utils.oer4f (.text:MmwDemo_CLIGatingParamCfg)
                  0001c064    0000009c     mmw_cli.oer4f (.text:MmwDemo_CLIMeasureRangeBiasAndRxChanPhaseCfg)
                  0001c100    0000009c     libqspiflash_xwr68xx.aer4f : qspiflash_device_spansion.oer4f (.text:QSPIFlash_spansion_progQuadRead)
                  0001c19c    0000009c     libuart_xwr68xx.aer4f : uartsci.oer4f (.text:UartSci_write)
                  0001c238    0000009c     libgtrack3D.aer4f : gtrack_unit_stop.oer4f (.text:gtrack_unitStop)
                  0001c2d4    0000009c     rtsv7R4_T_le_v3D16_eabi.lib : memcpy_t2.obj (.text)
                  0001c370    0000009c     sysbios.aer4ft : BIOS.obj (.text:ti_sysbios_family_arm_v7r_vim_Hwi_initIntController__I)
                  0001c40c    00000004     libmmwave_xwr68xx.aer4f : mmwave_link.oer4f (.text:MMWave_registerInterruptHandler)
                  0001c410    0000009c     sysbios.aer4ft : BIOS.obj (.text:ti_sysbios_family_arm_v7r_vim_Hwi_mapChannel__I)
                  0001c4ac    00000004     libmmwave_xwr68xx.aer4f : mmwave_link.oer4f (.text:MMWave_unmaskHostIRQ)
                  0001c4b0    0000009c     sysbios.aer4ft : BIOS.obj (.text:ti_sysbios_knl_Semaphore_Instance_init__E)
                  0001c54c    0000009a     libdpm_xwr68xx.aer4f : dpm_msg.oer4f (.text:DPM_msgResponseHandler)
                  0001c5e6    0000009a     libgtrack3D.aer4f : gtrack_math.oer4f (.text:gtrack_matrixMakeSymmetrical)
                  0001c680    00000098     libmmwave_xwr68xx.aer4f : mmwave_fullcfg.oer4f (.text:MMWave_getChirpCfg)
                  0001c718    00000098     mmw_lvds_stream.oer4f (.text:MmwDemo_LVDSStream_EDMAAllocateCBUFFChannel)
                  0001c7b0    00000098     mmwdemo_rfparser.oer4f (.text:MmwDemo_RFParser_parseConfig)
                  0001c848    00000098     rtsv7R4_T_le_v3D16_eabi.lib : fclose.obj (.text)
                  0001c8e0    00000098                                 : fputc.obj (.text)
                  0001c978    00000098     sysbios.aer4ft : vim_Hwi_asm_switch.obj (.text)
                  0001ca10    00000098                    : BIOS.obj (.text:ti_sysbios_utils_Load_taskDeleteHook__E)
                  0001caa8    00000096     libedma_xwr68xx.aer4f : edma.oer4f (.text:EDMA_getErrorStatusInfo)
                  0001cb3e    00000096     libhwa_xwr68xx.aer4f : hwa.oer4f (.text:HWA_configRam)
                  0001cbd4    00000096     libuart_xwr68xx.aer4f : uartsci.oer4f (.text:UartSci_readChar)
                  0001cc6a    00000094     libcbuff_xwr68xx.aer4f : cbuff_transfer.oer4f (.text:CBUFF_setupNonInterleaved_ADC)
                  0001ccfe    00000002     --HOLE-- [fill = 0]
                  0001cd00    00000094     mmw_lvds_stream.oer4f (.text:MmwDemo_LVDSStream_EDMAAllocateCBUFFHwChannel)
                  0001cd94    00000094     mmw_lvds_stream.oer4f (.text:MmwDemo_LVDSStream_EDMAAllocateCBUFFSwChannel)
                  0001ce28    00000094     libsoc_xwr68xx.aer4f : soc_xwr68xx.oer4f (.text:SOC_gateClock)
                  0001cebc    00000094     libgtrack3D.aer4f : gtrack_utilities_3d.oer4f (.text:gtrack_calcDistance)
                  0001cf50    00000094                       : gtrack_math.oer4f (.text:gtrack_matrixCovFilter)
                  0001cfe4    00000094     libmmwavelink_xwr68xx.aer4f : rl_driver.oer4f (.text:rlDriverDeInit)
                  0001d078    00000094                                 : rl_driver.oer4f (.text:rlDriverMsgReadCmdCtx)
                  0001d10c    00000094                                 : rl_driver.oer4f (.text:rlDriverProcRdMsg)
                  0001d1a0    00000094     sysbios.aer4ft : vim_Hwi_asm.obj (.text:ti_sysbios_family_arm_v7r_vim_Hwi_dispatchIRQ__I)
                  0001d234    00000090     libgpio_xwr68xx.aer4f : gpio.oer4f (.text:GPIO_init)
                  0001d2c4    00000090     libmailbox_xwr68xx.aer4f : mailbox.oer4f (.text:Mailbox_close)
                  0001d354    00000090     libuart_xwr68xx.aer4f : uartsci_dma.oer4f (.text:UartSci_initiateTxDMA)
                  0001d3e4    00000090                           : uartsci.oer4f (.text:UartSci_read)
                  0001d474    0000000c     sysbios.aer4ft : BIOS.obj (.text:ti_sysbios_family_arm_v7a_Pmu_getCountI__E)
                  0001d480    00000090                    : BIOS.obj (.text:ti_sysbios_family_arm_v7a_Pmu_startCounter__E)
                  0001d510    00000090                    : BIOS.obj (.text:ti_sysbios_knl_Task_unblockI__E)
                  0001d5a0    00000090                    : BIOS.obj (.text:xdc_runtime_LoggerBuf_getFilterLevel__E)
                  0001d630    0000008e     libgtrack3D.aer4f : gtrack_utilities_3d.oer4f (.text:gtrack_matrixComputePJT)
                  0001d6be    00000002     --HOLE-- [fill = 0]
                  0001d6c0    0000008c     libcli_xwr68xx.aer4f : cli_mmwave.oer4f (.text:CLI_MMWaveDataOutputMode)
                  0001d74c    0000008c     libsoc_xwr68xx.aer4f : soc.oer4f (.text:SOC_init)
                  0001d7d8    0000008c                          : soc_xwr68xx.oer4f (.text:SOC_translateAddress)
                  0001d864    0000008c     libuart_xwr68xx.aer4f : uartsci_dma.oer4f (.text:UartSci_initiateRxDMA)
                  0001d8f0    0000008c     libgtrack3D.aer4f : gtrack_math.oer4f (.text:gtrack_matrixMultiply)
                  0001d97c    0000008c     libmmwavelink_xwr68xx.aer4f : rl_device.oer4f (.text:rlDevicePowerOn)
                  0001da08    0000008c                                 : rl_driver.oer4f (.text:rlDriverMsgReadSpawnCtx)
                  0001da94    0000000c     mmw_mss_per4ft.oer4ft (.text:ti_sysbios_knl_Queue_Object__get__S)
                  0001daa0    0000008c     sysbios.aer4ft : BIOS.obj (.text:ti_sysbios_family_arm_v7a_Pmu_getCount__E)
                  0001db2c    00000004     libmmwave_xwr68xx.aer4f : mmwave_link.oer4f (.text:MMWave_waitIRQStatus)
                  0001db30    0000008c     sysbios.aer4ft : BIOS.obj (.text:ti_sysbios_family_arm_v7r_vim_Hwi_Instance_finalize__E)
                  0001dbbc    00000004     mss_main.oer4f (.text:MmwDemo_sleep)
                  0001dbc0    0000008c     sysbios.aer4ft : BIOS.obj (.text:xdc_runtime_Memory_alloc__E)
                  0001dc4c    00000088     libhwa_xwr68xx.aer4f : hwa.oer4f (.text:HWA_disableParamSetInterrupt)
                  0001dcd4    00000088     libmmwave_xwr68xx.aer4f : mmwave_fullcfg.oer4f (.text:MMWave_getProfileCfg)
                  0001dd5c    00000088     libgtrack3D.aer4f : gtrack_math.oer4f (.text:gtrack_matrixTransposeMultiply)
                  0001dde4    00000088     rtsv7R4_T_le_v3D16_eabi.lib : vsnprintf.obj (.text)
                  0001de6c    00000086     libcbuff_xwr68xx.aer4f : cbuff_edma.oer4f (.text:CBUFF_closeEDMA)
                  0001def2    00000002     --HOLE-- [fill = 0]
                  0001def4    00000084     libmmwave_xwr68xx.aer4f : mmwave_dualcore.oer4f (.text:MMWave_deviceCfgAsyncEvent)
                  0001df78    00000084                             : mmwave_dualcore.oer4f (.text:MMWave_deviceEventFxn)
                  0001dffc    00000084                             : mmwave_fullcfg.oer4f (.text:MMWave_getNumBpmChirp)
                  0001e080    00000084                             : mmwave.oer4f (.text:MMWave_open)
                  0001e104    00000084     libgtrack3D.aer4f : gtrack_math.oer4f (.text:gtrack_sincosd)
                  0001e188    00000082     libhwa_xwr68xx.aer4f : hwa.oer4f (.text:HWA_paramDoneISR)
                  0001e20a    00000002     --HOLE-- [fill = 0]
                  0001e20c    00000081     libcbuff_xwr68xx.aer4f : cbuff_edma.oer4f (.text:CBUFF_setupEDMAShadowLink)
                  0001e28d    00000003     --HOLE-- [fill = 0]
                  0001e290    00000080     libcli_xwr68xx.aer4f : cli_mmwave.oer4f (.text:CLI_MMWaveChannelCfg)
                  0001e310    00000080     libdpm_xwr68xx.aer4f : dpm_mailbox.oer4f (.text:DPM_mboxRemoteMailboxCallbackFxn)
                  0001e390    00000080     libmmwave_xwr68xx.aer4f : mmwave_fullcfg.oer4f (.text:MMWave_getBpmChirpCfg)
                  0001e410    00000080     mmw_cli.oer4f (.text:MmwDemo_CLIAoAFovCfg)
                  0001e490    00000080     libsoc_xwr68xx.aer4f : soc.oer4f (.text:SOC_getDeviceRFFreqScaleFactor)
                  0001e510    00000080     libuart_xwr68xx.aer4f : uartsci.oer4f (.text:UartSci_writePolling)
                  0001e590    00000080     libgtrack3D.aer4f : gtrack_module.oer4f (.text:gtrack_moduleUpdate)
                  0001e610    00000080                       : gtrack_utilities_3d.oer4f (.text:gtrack_sph2cart)
                  0001e690    00000080     libmmwavelink_xwr68xx.aer4f : rl_driver.oer4f (.text:rlDriverExecuteGetApi)
                  0001e710    00000080     sysbios.aer4ft : BIOS.obj (.text:ti_sysbios_timers_rti_Timer_initDevice__I)
                  0001e790    0000007e     libosal_xwr68xx.aer4f : HwiP_tirtos.oer4f (.text:HwiP_create)
                  0001e80e    00000002     --HOLE-- [fill = 0]
                  0001e810    0000007e     libgtrack3D.aer4f : gtrack_math.oer4f (.text:gtrack_matrixPrint)
                  0001e88e    00000002     --HOLE-- [fill = 0]
                  0001e890    0000007d     libcbuff_xwr68xx.aer4f : cbuff_lvds.oer4f (.text:CBUFF_initLVDSLinkListParams)
                  0001e90d    00000003     --HOLE-- [fill = 0]
                  0001e910    0000007c     libdpm_xwr68xx.aer4f : dpm_pipe.oer4f (.text:DPM_pipeSend)
                  0001e98c    0000007c     libedma_xwr68xx.aer4f : edma.oer4f (.text:EDMA_clearErrors)
                  0001ea08    0000007c     libmmwave_xwr68xx.aer4f : mmwave_dualcore.oer4f (.text:MMWave_deviceOpenFxn)
                  0001ea84    0000007c     libmailbox_xwr68xx.aer4f : mailbox.oer4f (.text:Mailbox_init)
                  0001eb00    0000007c     tracker_utils.oer4f (.text:MmwDemoCLIMaxAccelerationParamCfg)
                  0001eb7c    0000007c     tracker_utils.oer4f (.text:MmwDemo_CLIStateParamCfg)
                  0001ebf8    0000007c     libuart_xwr68xx.aer4f : uartsci.oer4f (.text:UartSci_readPolling)
                  0001ec74    0000007c     sysbios.aer4ft : arm_TaskSupport_asm.obj (.text:_ti_sysbios_family_arm_TaskSupport_buildTaskStack)
                  0001ecf0    0000007c                    : BIOS.obj (.text:xdc_runtime_Core_deleteObject__I)
                  0001ed6c    0000007b     mmw_cli.oer4f (.text:MmwDemo_CLIGetSubframe)
                  0001ede7    00000001     --HOLE-- [fill = 0]
                  0001ede8    0000007a     libgtrack3D.aer4f : gtrack_math.oer4f (.text:gtrack_matrixCovAcc)
                  0001ee62    0000007a     rtsv7R4_T_le_v3D16_eabi.lib : memset_t2.obj (.text)
                  0001eedc    00000078     libadcbuf_xwr68xx.aer4f : adcbuf_mmwave.oer4f (.text:ADCBUF_MMWave_getCQBufAddr)
                  0001ef54    00000078     libcbuff_xwr68xx.aer4f : cbuff_transfer.oer4f (.text:CBUFF_configUserBufferEDMA)
                  0001efcc    00000078                            : cbuff.oer4f (.text:CBUFF_setVC)
                  0001f044    00000078     libcli_xwr68xx.aer4f : cli_mmwave.oer4f (.text:CLI_MMWaveADCCfg)
                  0001f0bc    00000078     libedma_xwr68xx.aer4f : edma.oer4f (.text:EDMA_configParamSet)
                  0001f134    00000078     libmmwave_xwr68xx.aer4f : mmwave_fullcfg.oer4f (.text:MMWave_getNumChirps)
                  0001f1ac    00000078     libqspi_xwr68xx.aer4f : qspi.oer4f (.text:QSPI_cfgRead)
                  0001f224    00000074     libmmwave_xwr68xx.aer4f : mmwave.oer4f (.text:MMWave_config)
                  0001f298    00000074                             : mmwave_dualcore.oer4f (.text:MMWave_deviceStartFxn)
                  0001f30c    00000074     boot.aer4ft : boot.oer4ft (.text)
                  0001f380    00000074     libmmwavelink_xwr68xx.aer4f : rl_driver.oer4f (.text:rlDriverAsyncEventHandler)
                  0001f3f4    00000074     rtsv7R4_T_le_v3D16_eabi.lib : getdevice.obj (.text)
                  0001f468    00000074                                 : s_frexp.obj (.text)
                  0001f4dc    00000072     libgtrack3D.aer4f : gtrack_listlib.oer4f (.text:gtrack_listRemoveElement)
                  0001f54e    00000072     libmmwavelink_xwr68xx.aer4f : rl_driver.oer4f (.text:rlDriverClientCbCheck)
                  0001f5c0    00000070     libhsiheader_xwr68xx.aer4f : hsiheader.oer4f (.text:HSIHeader_deleteHeader)
                  0001f630    00000070     libhwa_xwr68xx.aer4f : hwa.oer4f (.text:HWA_getDriverAccess)
                  0001f6a0    00000070     libmmwave_xwr68xx.aer4f : mmwave_dualcore.oer4f (.text:MMWave_deviceCfgFxn)
                  0001f710    00000070     mmw_cli.oer4f (.text:MmwDemo_CLIGuiMonSel)
                  0001f780    00000070     sysbios.aer4ft : BIOS.obj (.text:xdc_runtime_Error_print__E)
                  0001f7f0    0000006c     libdma_xwr68xx.aer4f : dma.oer4f (.text:DMA_disableChannel)
                  0001f85c    0000006c                          : dma.oer4f (.text:DMA_enableChannel)
                  0001f8c8    0000006c     libdpm_xwr68xx.aer4f : dpm_core.oer4f (.text:DPM_relayResult)
                  0001f934    0000006c     libmmwave_xwr68xx.aer4f : mmwave_link.oer4f (.text:MMWave_spawn)
                  0001f9a0    0000006c                             : mmwave_link.oer4f (.text:MMWave_stopLink)
                  0001fa0c    0000006c     libpinmux_xwr68xx.aer4f : pinmux.oer4f (.text:Pinmux_Set_FuncSel)
                  0001fa78    0000006c     libqspiflash_xwr68xx.aer4f : qspiflash.oer4f (.text:QSPIFlashReadSFDP)
                  0001fae4    0000006c     libqspi_xwr68xx.aer4f : qspi.oer4f (.text:QSPI_cfgWrite)
                  0001fb50    0000006c     rtsv7R4_T_le_v3D16_eabi.lib : copy_decompress_lzss.obj (.text:decompress:lzss)
                  0001fbbc    0000006c     libgtrack3D.aer4f : gtrack_math.oer4f (.text:gtrack_matrixCovNormalize)
                  0001fc28    0000006c     rtsv7R4_T_le_v3D16_eabi.lib : trgmsg.obj (.text)
                  0001fc94    0000006a     libuart_xwr68xx.aer4f : uartsci.oer4f (.text:UartSci_control)
                  0001fcfe    00000002     --HOLE-- [fill = 0]
                  0001fd00    00000068     libdpm_xwr68xx.aer4f : dpm_msg.oer4f (.text:DPM_msgDPCCfgHandler)
                  0001fd68    00000068     libmmwave_xwr68xx.aer4f : mmwave_dualcore.oer4f (.text:MMWave_deviceStopFxn)
                  0001fdd0    00000068     libmailbox_xwr68xx.aer4f : mailbox.oer4f (.text:Mailbox_readFlush)
                  0001fe38    00000068     mss_main.oer4f (.text:MmwDemo_convertCfarToLinear)
                  0001fea0    00000068     libgtrack3D.aer4f : gtrack_utilities_3d.oer4f (.text:gtrack_isPointInsideBox)
                  0001ff08    00000068     librangeproc_hwa_xwr68xx.aer4f : rangeprochwa.oer4f (.text:rangeProcHWA_ConfigEDMATranspose)
                  0001ff70    00000068                                    : rangeprochwa.oer4f (.text:rangeProcHWA_ConfigHWACommon)
                  0001ffd8    00000068     libmmwavelink_xwr68xx.aer4f : rl_driver.oer4f (.text:rlDriverExecuteSetApi)
                  00020040    00000068                                 : rl_driver.oer4f (.text:rlDriverHostIrqHandler)
                  000200a8    00000068     rtsv7R4_T_le_v3D16_eabi.lib : hostlseek.obj (.text)
                  00020110    00000068                                 : hostrename.obj (.text)
                  00020178    00000066     libgtrack3D.aer4f : gtrack_utilities_3d.oer4f (.text:gtrack_computeMahalanobisPartial)
                  000201de    00000066     libmmwavelink_xwr68xx.aer4f : rl_device.oer4f (.text:rlDevicePowerOff)
                  00020244    00000064     libcli_xwr68xx.aer4f : cli_mmwave.oer4f (.text:CLI_MMWaveLowPowerCfg)
                  000202a8    00000064     libtrackerproc_xwr68xx.aer4f : trackerproc_3d.oer4f (.text:DPU_trackerProc_updateParamTables)
                  0002030c    00000064     libedma_xwr68xx.aer4f : edma.oer4f (.text:EDMA_getTransferControllerErrorStatusInfo)
                  00020370    00000064     libhwa_xwr68xx.aer4f : hwa.oer4f (.text:HWA_getDMAChanIndex)
                  000203d4    00000064     libosal_xwr68xx.aer4f : SemaphoreP_tirtos.oer4f (.text:SemaphoreP_create)
                  00020438    00000064     rtsv7R4_T_le_v3D16_eabi.lib : fseek.obj (.text)
                  0002049c    00000064                                 : sprintf.obj (.text)
                  00020500    00000064     sysbios.aer4ft : exc_Exception_asm.obj (.text:ti_sysbios_family_arm_exc_Exception_initCore0__I)
                  00020564    0000000a     libadcbuf_xwr68xx.aer4f : ADCBuf.oer4f (.text:ADCBuf_control)
                  0002056e    00000002     --HOLE-- [fill = 0]
                  00020570    00000064     sysbios.aer4ft : BIOS.obj (.text:ti_sysbios_family_arm_v7r_vim_Hwi_phantomIntHandler__I)
                  000205d4    0000000a     libadcbuf_xwr68xx.aer4f : ADCBuf.oer4f (.text:ADCBuf_getChanBufAddr)
                  000205de    00000002     --HOLE-- [fill = 0]
                  000205e0    00000064     sysbios.aer4ft : BIOS.obj (.text:ti_sysbios_knl_Clock_logTick__E)
                  00020644    0000000a     libcbuff_xwr68xx.aer4f : cbuff_lvds.oer4f (.text:CBUFF_deinitLVDS)
                  0002064e    00000002     --HOLE-- [fill = 0]
                  00020650    00000064     sysbios.aer4ft : BIOS.obj (.text:ti_sysbios_utils_Load_logCPULoad__I)
                  000206b4    0000000a     libdpm_xwr68xx.aer4f : dpm_core.oer4f (.text:DPM_chirpISR)
                  000206be    00000002     --HOLE-- [fill = 0]
                  000206c0    00000064     sysbios.aer4ft : BIOS.obj (.text:xdc_runtime_Startup_exec__E)
                  00020724    00000062     mmw_cli.oer4f (.text:MmwDemo_CLICfarFovCfg)
                  00020786    00000002     --HOLE-- [fill = 0]
                  00020788    00000060     libcli_xwr68xx.aer4f : cli_mmwave.oer4f (.text:CLI_MMWaveExtensionHandler)
                  000207e8    00000060     libosal_xwr68xx.aer4f : DebugP_tirtos.oer4f (.text:DebugP_log2)
                  00020848    00000060                           : DebugP_tirtos.oer4f (.text:DebugP_log3)
                  000208a8    00000006     objdetrangehwa.oer4f (.text:DPC_ObjDetRangeHwa_GetRangeWinGenLen)
                  000208ae    00000002     --HOLE-- [fill = 0]
                  000208b0    00000060     sysbios.aer4ft : BIOS.obj (.text:ti_sysbios_heaps_HeapMem_alloc__E)
                  00020910    00000060                    : BIOS.obj (.text:xdc_runtime_Assert_raise__I)
                  00020970    0000005f                    : BIOS.obj (.text:xdc_runtime_Text_putLab__E)
                  000209cf    00000001     --HOLE-- [fill = 0]
                  000209d0    0000005e     libuart_xwr68xx.aer4f : uartsci.oer4f (.text:UartSci_writeChar)
                  00020a2e    0000005e     libgtrack3D.aer4f : gtrack_utilities.oer4f (.text:gtrack_unrollRadialVelocity)
                  00020a8c    0000005c     libmmwave_xwr68xx.aer4f : mmwave_link.oer4f (.text:MMWave_mboxOpen)
                  00020ae8    0000005c                             : mmwave.oer4f (.text:MMWave_stop)
                  00020b44    0000005c     libqspiflash_xwr68xx.aer4f : qspiflash.oer4f (.text:QSPIFlashGetDeviceID)
                  00020ba0    0000005c     libsoc_xwr68xx.aer4f : soc.oer4f (.text:SOC_enableLVDS)
                  00020bfc    0000005c     rtsv7R4_T_le_v3D16_eabi.lib : hostopen.obj (.text)
                  00020c58    0000005c                                 : hostread.obj (.text)
                  00020cb4    0000000a     libdpm_xwr68xx.aer4f : dpm_core.oer4f (.text:DPM_frameStartISR)
                  00020cbe    00000002     --HOLE-- [fill = 0]
                  00020cc0    0000005c     sysbios.aer4ft : BIOS.obj (.text:ti_sysbios_utils_Load_updateCurrentThreadTime__E)
                  00020d1c    0000005a     libuart_xwr68xx.aer4f : uartsci.oer4f (.text:UartSci_readCancel)
                  00020d76    0000005a     libmmwavelink_xwr68xx.aer4f : rl_driver.oer4f (.text:rlDriverCalChkSum)
                  00020dd0    00000058     libdpm_xwr68xx.aer4f : dpm_core.oer4f (.text:DPM_execute)
                  00020e28    00000058                          : dpm_mailbox.oer4f (.text:DPM_mboxInit)
                  00020e80    00000058     libosal_xwr68xx.aer4f : DebugP_tirtos.oer4f (.text:DebugP_log0)
                  00020ed8    00000058                           : DebugP_tirtos.oer4f (.text:DebugP_log1)
                  00020f30    00000058     libedma_xwr68xx.aer4f : edma_low_level.oer4f (.text:EDMA3EnableChInShadowReg)
                  00020f88    00000058     libesm_xwr68xx.aer4f : esm.oer4f (.text:ESM_highpriority_FIQ)
                  00020fe0    00000058     libhwa_xwr68xx.aer4f : hwa.oer4f (.text:HWA_getDMAconfig)
                  00021038    00000058     libmmwave_xwr68xx.aer4f : mmwave.oer4f (.text:MMWave_execute)
                  00021090    00000058                             : mmwave_link.oer4f (.text:MMWave_initCRC)
                  000210e8    00000058     mmw_cli.oer4f (.text:MmwDemo_CLISensorStop)
                  00021140    00000058     libuart_xwr68xx.aer4f : uartsci_dma.oer4f (.text:UartSci_closeDMA)
                  00021198    00000058     libgtrack3D.aer4f : gtrack_utilities_3d.oer4f (.text:gtrack_isPointBehindTarget)
                  000211f0    00000058     rtsv7R4_T_le_v3D16_eabi.lib : close.obj (.text)
                  00021248    00000058                                 : hostwrite.obj (.text)
                  000212a0    00000056     libmmwavelink_xwr68xx.aer4f : rl_driver.oer4f (.text:rlDriverOsiCbCheck)
                  000212f6    00000002     --HOLE-- [fill = 0]
                  000212f8    00000054     libcrc_xwr68xx.aer4f : crc.oer4f (.text:CRC_getTransactionId)
                  0002134c    00000054     libdma_xwr68xx.aer4f : dma.oer4f (.text:DMA_freeChannel)
                  000213a0    00000054     libedma_xwr68xx.aer4f : edma.oer4f (.text:EDMA_error_isr)
                  000213f4    00000054     libmmwave_xwr68xx.aer4f : mmwave_link.oer4f (.text:MMWave_initLink)
                  00021448    00000054     mss_main.oer4f (.text:MmwDemo_CfgUpdate)
                  0002149c    00000054     mss_main.oer4f (.text:MmwDemo_resetStaticCfgPendingState)
                  000214f0    00000054     libqspiflash_xwr68xx.aer4f : qspiflash.oer4f (.text:QSPIFlash_writeEnable)
                  00021544    00000054     rtsv7R4_T_le_v3D16_eabi.lib : ltoa.obj (.text)
                  00021598    00000054     mmw_mss_per4ft.oer4ft (.text:ti_sysbios_family_arm_v7r_vim_Hwi_create)
                  000215ec    00000004     libgtrack3D.aer4f : gtrack_listlib.oer4f (.text:gtrack_listGetCount)
                  000215f0    00000054     sysbios.aer4ft : BIOS.obj (.text:ti_sysbios_heaps_HeapMem_getStats__E)
                  00021644    0000000a     libosal_xwr68xx.aer4f : MemoryP_tirtos.oer4f (.text:MemoryP_ctrlFree)
                  0002164e    00000002     --HOLE-- [fill = 0]
                  00021650    00000054     sysbios.aer4ft : BIOS.obj (.text:xdc_runtime_Core_assignLabel__I)
                  000216a4    00000052     libdpedma_hwa_xwr68xx.aer4f : dpedma.oer4f (.text:DPEDMA_setup_shadow_link)
                  000216f6    00000052     libgtrack3D.aer4f : gtrack_utilities_3d.oer4f (.text:gtrack_calcDim)
                  00021748    00000050     libcrc_xwr68xx.aer4f : crc.oer4f (.text:CRC_getSignature)
                  00021798    00000050     libdpm_xwr68xx.aer4f : dpm_core.oer4f (.text:DPM_synch)
                  000217e8    00000050     libedma_xwr68xx.aer4f : edma_low_level.oer4f (.text:EDMA3MapChToEvtQ)
                  00021838    00000050     libmmwave_xwr68xx.aer4f : mmwave.oer4f (.text:MMWave_sync)
                  00021888    00000050     mmw_cli.oer4f (.text:MmwDemo_CLIMultiObjBeamForming)
                  000218d8    00000050     libgtrack3D.aer4f : gtrack_module.oer4f (.text:gtrack_modulePredict)
                  00021928    00000050     mss_main.oer4f (.text:mmwDemo_mssDPMTask)
                  00021978    00000050     libmmwavelink_xwr68xx.aer4f : rl_driver.oer4f (.text:rlDeviceIdentifyCmdDir)
                  000219c8    00000050                                 : rl_driver.oer4f (.text:rlDriverVerifyCRC)
                  00021a18    00000050     rtsv7R4_T_le_v3D16_eabi.lib : atoi.obj (.text)
                  00021a68    00000050                                 : exit.obj (.text)
                  00021ab8    00000050                                 : u_div32.obj (.text)
                  00021b08    00000006     libdpm_xwr68xx.aer4f : dpm_mailbox.oer4f (.text:DPM_mboxSynch)
                  00021b0e    00000002     --HOLE-- [fill = 0]
                  00021b10    00000050     sysbios.aer4ft : BIOS.obj (.text:xdc_runtime_System_exit__E)
                  00021b60    0000004c     libcli_xwr68xx.aer4f : cli.oer4f (.text:CLI_write)
                  00021bac    0000004c     libedma_xwr68xx.aer4f : edma.oer4f (.text:EDMA_disableChannel)
                  00021bf8    0000004c                           : edma.oer4f (.text:EDMA_enableChannel)
                  00021c44    0000004c     libhwa_xwr68xx.aer4f : hwa.oer4f (.text:HWA_enableDoneInterrupt)
                  00021c90    0000004c     libmailbox_xwr68xx.aer4f : mailbox.oer4f (.text:Mailbox_boxEmptyISRProcessing)
                  00021cdc    0000004c     libqspiflash_xwr68xx.aer4f : qspiflash_device_macronix.oer4f (.text:QSPIFlash_macronix_init)
                  00021d28    0000004c     libuart_xwr68xx.aer4f : uartsci.oer4f (.text:UartSci_writeCancel)
                  00021d74    0000004c     libgtrack3D.aer4f : gtrack_unit_report.oer4f (.text:gtrack_unitReport)
                  00021dc0    0000004c     rtsv7R4_T_le_v3D16_eabi.lib : cpy_tbl.obj (.text)
                  00021e0c    00000004     libgtrack3D.aer4f : gtrack_listlib.oer4f (.text:gtrack_listGetFirst)
                  00021e10    0000004c     sysbios.aer4ft : BIOS.obj (.text:ti_sysbios_family_arm_v7r_vim_Hwi_getStackInfo__E)
                  00021e5c    0000004c     mmw_mss_per4ft.oer4ft (.text:ti_sysbios_knl_Task_create)
                  00021ea8    00000006     libedma_xwr68xx.aer4f : edma_low_level.oer4f (.text:EDMA3ClrCCErr)
                  00021eae    00000002     --HOLE-- [fill = 0]
                  00021eb0    0000004c     sysbios.aer4ft : BIOS.obj (.text:ti_sysbios_knl_Task_stat__E)
                  00021efc    00000004     libgtrack3D.aer4f : gtrack_listlib.oer4f (.text:gtrack_listGetNext)
                  00021f00    0000004c     sysbios.aer4ft : BIOS.obj (.text:ti_sysbios_utils_Load_taskSwitchHook__E)
                  00021f4c    0000004a     libdpm_xwr68xx.aer4f : dpm_mailbox.oer4f (.text:DPM_mboxSendResult)
                  00021f96    0000004a     libmailbox_xwr68xx.aer4f : mailbox.oer4f (.text:Mailbox_boxFullISRProcessing)
                  00021fe0    0000004a     sysbios.aer4ft : BIOS.obj (.text:xdc_runtime_Core_assignParams__I)
                  0002202a    00000006     libedma_xwr68xx.aer4f : edma_low_level.oer4f (.text:EDMA3ErrIntrHighStatusGet)
                  00022030    0000004a     sysbios.aer4ft : BIOS.obj (.text:xdc_runtime_Text_xprintf__I)
                  0002207a    00000048     libcbuff_xwr68xx.aer4f : cbuff_transfer.oer4f (.text:CBUFF_setup_USER)
                  000220c2    00000048     libdpm_xwr68xx.aer4f : dpm_pipe.oer4f (.text:DPM_pipeRecv)
                  0002210a    00000002     --HOLE-- [fill = 0]
                  0002210c    00000048     libhwa_xwr68xx.aer4f : hwa.oer4f (.text:HWA_deleteInstance)
                  00022154    00000048     libmmwavelink_xwr68xx.aer4f : rl_device.oer4f (.text:rlDeviceGetVersion)
                  0002219c    00000048                                 : rl_driver.oer4f (.text:rlDriverOsiInit)
                  000221e4    00000048     mmw_mss_per4ft.oer4ft (.text:xdc_runtime_LoggerBuf_Object__create__S)
                  0002222c    00000046     libmailbox_xwr68xx.aer4f : mailbox.oer4f (.text:CSL_FINSR)
                  00022272    00000002     --HOLE-- [fill = 0]
                  00022274    00000044     libadcbuf_xwr68xx.aer4f : adcbuf_mmwave.oer4f (.text:ADCBUF_MMWave_close)
                  000222b8    00000044     libcrc_xwr68xx.aer4f : crc.oer4f (.text:CRC_resetSignature)
                  000222fc    00000044     libdpm_xwr68xx.aer4f : dpm_core.oer4f (.text:DPM_start)
                  00022340    00000044                          : dpm_core.oer4f (.text:DPM_stop)
                  00022384    00000044     libmailbox_xwr68xx.aer4f : mailbox.oer4f (.text:Mailbox_boxFullISRMssDss)
                  000223c8    00000044     libsoc_xwr68xx.aer4f : soc_xwr68xx_mss.oer4f (.text:SOC_resetDMA)
                  0002240c    00000044     rtsv7R4_T_le_v3D16_eabi.lib : hostclose.obj (.text)
                  00022450    00000044                                 : hostunlink.obj (.text)
                  00022494    0000000a     libosal_xwr68xx.aer4f : SemaphoreP_tirtos.oer4f (.text:SemaphoreP_post)
                  0002249e    00000002     --HOLE-- [fill = 0]
                  000224a0    00000044     sysbios.aer4ft : BIOS.obj (.text:ti_sysbios_family_arm_v7r_tms570_Core_Module_startup__E)
                  000224e4    0000000a     libuart_xwr68xx.aer4f : UART.oer4f (.text:UART_read)
                  000224ee    00000002     --HOLE-- [fill = 0]
                  000224f0    00000044     sysbios.aer4ft : BIOS.obj (.text:ti_sysbios_knl_Task_allBlockedFunction__I)
                  00022534    0000000a     libuart_xwr68xx.aer4f : UART.oer4f (.text:UART_write)
                  0002253e    00000002     --HOLE-- [fill = 0]
                  00022540    00000044     sysbios.aer4ft : BIOS.obj (.text:xdc_runtime_LoggerBuf_Module_startup__E)
                  00022584    0000000a     libuart_xwr68xx.aer4f : UART.oer4f (.text:UART_writePolling)
                  0002258e    00000002     --HOLE-- [fill = 0]
                  00022590    00000044     sysbios.aer4ft : BIOS.obj (.text:xdc_runtime_System_atexit__E)
                  000225d4    00000042     libcbuff_xwr68xx.aer4f : cbuff_lvds.oer4f (.text:CBUFF_closeLVDS)
                  00022616    00000042     libedma_xwr68xx.aer4f : edma.oer4f (.text:EDMA_transferController_error_isr)
                  00022658    00000042     libhwa_xwr68xx.aer4f : hwa.oer4f (.text:HWA_reset)
                  0002269a    00000042     libmmwave_xwr68xx.aer4f : mmwave_link.oer4f (.text:MMWave_executeLink)
                  000226dc    00000042     libgtrack3D.aer4f : gtrack_module.oer4f (.text:gtrack_moduleAssociate)
                  0002271e    00000042     libmmwavelink_xwr68xx.aer4f : rl_controller.oer4f (.text:rlGetSubBlock)
                  00022760    00000040     libedma_xwr68xx.aer4f : edma.oer4f (.text:EDMA_linkParamSets)
                  000227a0    00000040     libhwa_xwr68xx.aer4f : hwa.oer4f (.text:HWA_getHWAMemInfo)
                  000227e0    00000040     mmw_cli.oer4f (.text:MmwDemo_CLIClutterRemoval)
                  00022820    00000040     mmw_cli.oer4f (.text:MmwDemo_CLIExtendedMaxVelocity)
                  00022860    00000040     libqspiflash_xwr68xx.aer4f : qspiflash_device_spansion.oer4f (.text:QSPIFlash_spansion_init)
                  000228a0    00000040     libgtrack3D.aer4f : gtrack_math.oer4f (.text:gtrack_matrixSetDiag)
                  000228e0    00000040                       : gtrack_module.oer4f (.text:gtrack_moduleReport)
                  00022920    00000040     libmmwavelink_xwr68xx.aer4f : rl_driver.oer4f (.text:rlDriverValidateHdr)
                  00022960    00000040     rtsv7R4_T_le_v3D16_eabi.lib : strtok.obj (.text)
                  000229a0    00000040     sysbios.aer4ft : BIOS.obj (.text:ti_sysbios_timers_rti_Timer_stop__E)
                  000229e0    0000003e     libadcbuf_xwr68xx.aer4f : adcbuf_mmwave.oer4f (.text:CSL_FINSR)
                  00022a1e    0000003e     libcbuff_xwr68xx.aer4f : cbuff.oer4f (.text:CSL_FINSR)
                  00022a5c    0000003e                            : cbuff_lvds.oer4f (.text:CSL_FINSR)
                  00022a9a    0000003e     libcrc_xwr68xx.aer4f : crc.oer4f (.text:CSL_FINSR)
                  00022ad8    0000003e     libdma_xwr68xx.aer4f : dma.oer4f (.text:CSL_FINSR)
                  00022b16    0000003e     libgpio_xwr68xx.aer4f : gpio.oer4f (.text:CSL_FINSR)
                  00022b54    0000003e     libhwa_xwr68xx.aer4f : hwa.oer4f (.text:CSL_FINSR)
                  00022b92    0000003e     libpinmux_xwr68xx.aer4f : pinmux.oer4f (.text:CSL_FINSR)
                  00022bd0    0000003e     libqspi_xwr68xx.aer4f : qspi.oer4f (.text:CSL_FINSR)
                  00022c0e    0000003e     libsoc_xwr68xx.aer4f : soc.oer4f (.text:CSL_FINSR)
                  00022c4c    0000003e                          : soc_xwr68xx.oer4f (.text:CSL_FINSR)
                  00022c8a    0000003e                          : soc_xwr68xx_mss.oer4f (.text:CSL_FINSR)
                  00022cc8    0000003e     libuart_xwr68xx.aer4f : uartsci.oer4f (.text:CSL_FINSR)
                  00022d06    0000003e     libdpm_xwr68xx.aer4f : dpm_msg.oer4f (.text:DPM_msgStopHandler)
                  00022d44    0000003e     libhwa_xwr68xx.aer4f : hwa.oer4f (.text:HWA_enable)
                  00022d82    0000003e     libmmwave_xwr68xx.aer4f : mmwave.oer4f (.text:MMWave_decodeError)
                  00022dc0    0000003e     libuart_xwr68xx.aer4f : uartsci.oer4f (.text:UartSci_close)
                  00022dfe    0000003e     mmwdemo_monitor.oer4f (.text:mmwDemo_cfgAnalogMonitor)
                  00022e3c    0000003c     libcbuff_xwr68xx.aer4f : cbuff_transfer.oer4f (.text:CBUFF_configCQEDMA)
                  00022e78    0000003c     libcli_xwr68xx.aer4f : cli_mmwave.oer4f (.text:CLI_MMWaveFlushCfg)
                  00022eb4    0000003c     libedma_xwr68xx.aer4f : edma.oer4f (.text:EDMA_chainChannels)
                  00022ef0    0000003c     libmailbox_xwr68xx.aer4f : mailbox.oer4f (.text:Mailbox_writeReset)
                  00022f2c    0000003c     libsoc_xwr68xx.aer4f : soc_xwr68xx_mss.oer4f (.text:SOC_isSecureDevice)
                  00022f68    0000003c                          : soc.oer4f (.text:SOC_unhaltBSS)
                  00022fa4    0000003c     sysbios.aer4ft : vim_Hwi_asm.obj (.text:ti_sysbios_family_arm_v7r_vim_Hwi_init__I)
                  00022fe0    0000003c                    : BIOS.obj (.text:ti_sysbios_hal_Hwi_checkStack)
                  0002301c    00000004     mmw_mss_per4ft.oer4ft (.text:ti_sysbios_BIOS_RtsGateProxy_enter__E)
                  00023020    0000003c     sysbios.aer4ft : BIOS.obj (.text:ti_sysbios_heaps_HeapMem_init__I)
                  0002305c    0000003a     libhwa_xwr68xx.aer4f : hwa.oer4f (.text:HWA_setDMA2ACCManualTrig)
                  00023096    00000002     --HOLE-- [fill = 0]
                  00023098    0000003a     libosal_xwr68xx.aer4f : HwiP_tirtos.oer4f (.text:HwiP_delete)
                  000230d2    00000038     libcbuff_xwr68xx.aer4f : cbuff_transfer.oer4f (.text:CBUFF_addUserBufferLLEntry)
                  0002310a    00000038                            : cbuff_transfer.oer4f (.text:CBUFF_setupHeader)
                  00023142    00000002     --HOLE-- [fill = 0]
                  00023144    00000038     libcli_xwr68xx.aer4f : cli_mmwave.oer4f (.text:CLI_MMWaveExtensionInit)
                  0002317c    00000038     objdetrangehwa.oer4f (.text:DPC_ObjectDetection_deinit)
                  000231b4    00000038     libdpm_xwr68xx.aer4f : dpm_core.oer4f (.text:DPM_notifyExecute)
                  000231ec    00000038     libedma_xwr68xx.aer4f : edma_low_level.oer4f (.text:EDMA3ClrMissEvt)
                  00023224    00000038     libuart_xwr68xx.aer4f : UART.oer4f (.text:UART_init)
                  0002325c    00000036     libmmwavelink_xwr68xx.aer4f : rl_controller.oer4f (.text:rlAppendSubBlock)
                  00023292    00000036     rtsv7R4_T_le_v3D16_eabi.lib : strncpy.obj (.text)
                  000232c8    00000036                                 : ull_tofs_t2.obj (.text)
                  000232fe    00000002     --HOLE-- [fill = 0]
                  00023300    00000034     libadcbuf_xwr68xx.aer4f : ADCBuf.oer4f (.text:ADCBuf_open)
                  00023334    00000034     libedma_xwr68xx.aer4f : edma.oer4f (.text:EDMA_configTransferControllerError)
                  00023368    00000034     libhwa_xwr68xx.aer4f : hwa.oer4f (.text:HWA_disableDoneInterrupt)
                  0002339c    00000034     libmmwave_xwr68xx.aer4f : mmwave_link.oer4f (.text:MMWave_mboxWrite)
                  000233d0    00000034     libsoc_xwr68xx.aer4f : soc_xwr68xx.oer4f (.text:SOC_enableHWA)
                  00023404    00000034                          : soc_xwr68xx_mss.oer4f (.text:SOC_hasDSPCore)
                  00023438    00000034                          : soc_xwr68xx.oer4f (.text:SOC_setMMWaveDSSLinkState)
                  0002346c    00000034                          : soc_xwr68xx.oer4f (.text:SOC_setMMWaveMSSLinkState)
                  000234a0    00000034                          : soc_xwr68xx.oer4f (.text:SOC_setMSSLinkState)
                  000234d4    00000034     libuart_xwr68xx.aer4f : UART.oer4f (.text:UART_open)
                  00023508    00000006     libedma_xwr68xx.aer4f : edma_low_level.oer4f (.text:EDMA3GetCCErrStatus)
                  0002350e    00000002     --HOLE-- [fill = 0]
                  00023510    00000034     sysbios.aer4ft : BIOS.obj (.text:ti_sysbios_family_arm_a15_TimestampProvider_get64__E)
                  00023544    00000034     mmw_mss_per4ft.oer4ft (.text:ti_sysbios_knl_Semaphore_create)
                  00023578    00000032     libcrc_xwr68xx.aer4f : crc.oer4f (.text:CRC_getCRCDataSelectBitValue)
                  000235aa    00000002     --HOLE-- [fill = 0]
                  000235ac    00000032                          : crc.oer4f (.text:CRC_getCRCTypeBitValue)
                  000235de    00000032     libedma_xwr68xx.aer4f : edma.oer4f (.text:EDMA_configQueueThreshold)
                  00023610    00000032     libhwa_xwr68xx.aer4f : hwa.oer4f (.text:HWA_allParamDoneISR)
                  00023642    0000000e     libsoc_xwr68xx.aer4f : soc_xwr68xx_mss.oer4f (.text:SOC_microDelay)
                  00023650    00000032     sysbios.aer4ft : BIOS.obj (.text:ti_sysbios_hal_Hwi_initStack)
                  00023682    00000002     --HOLE-- [fill = 0]
                  00023684    00000030     libadcbuf_xwr68xx.aer4f : ADCBuf.oer4f (.text:ADCBuf_init)
                  000236b4    00000030     libcbuff_xwr68xx.aer4f : cbuff_transfer.oer4f (.text:CBUFF_addCQLLEntry)
                  000236e4    00000030     libmmwave_xwr68xx.aer4f : mmwave_listlib.oer4f (.text:MMWave_listRemoveNode)
                  00023714    00000030     libsoc_xwr68xx.aer4f : soc.oer4f (.text:SOC_getDevicePartNumber)
                  00023744    00000030     libgtrack3D.aer4f : gtrack_math.oer4f (.text:gtrack_matrixAdd)
                  00023774    00000030                       : gtrack_math.oer4f (.text:gtrack_matrixSub)
                  000237a4    00000030     libmmwavelink_xwr68xx.aer4f : rl_sensor.oer4f (.text:rlSensorStart)
                  000237d4    00000030     mmw_mss_per4ft.oer4ft (.text:ti_sysbios_BIOS_startFunc__I)
                  00023804    0000000a     libgtrack3D.aer4f : gtrack_listlib.oer4f (.text:gtrack_listInit)
                  0002380e    00000002     --HOLE-- [fill = 0]
                  00023810    00000030     sysbios.aer4ft : BIOS.obj (.text:ti_sysbios_family_arm_TaskSupport_start__E)
                  00023840    00000030     mmw_mss_per4ft.oer4ft (.text:ti_sysbios_gates_GateHwi_Object__create__S)
                  00023870    00000030     mmw_mss_per4ft.oer4ft (.text:ti_sysbios_gates_GateMutex_Object__create__S)
                  000238a0    00000030     mmw_mss_per4ft.oer4ft (.text:ti_sysbios_heaps_HeapMem_Object__create__S)
                  000238d0    00000030     sysbios.aer4ft : BIOS.obj (.text:ti_sysbios_heaps_HeapMem_free__E)
                  00023900    00000030     mmw_mss_per4ft.oer4ft (.text:ti_sysbios_knl_Semaphore_construct)
                  00023930    0000002f     sysbios.aer4ft : BIOS.obj (.text:xdc_runtime_Text_printVisFxn__I)
                  0002395f    00000001     --HOLE-- [fill = 0]
                  00023960    0000002e     libdpm_xwr68xx.aer4f : dpm_msg.oer4f (.text:DPM_msgStartHandler)
                  0002398e    0000002e     objdetrangehwa.oer4f (.text:_DPC_Objdet_Assert)
                  000239bc    00000004     mmw_mss_per4ft.oer4ft (.text:ti_sysbios_BIOS_RtsGateProxy_leave__E)
                  000239c0    0000002e     sysbios.aer4ft : BIOS.obj (.text:ti_sysbios_knl_Semaphore_pendTimeout__I)
                  000239ee    0000002e     mmw_mss_per4ft.oer4ft (.text:ti_sysbios_rts_MemAlloc_alloc)
                  00023a1c    0000002c     libdpm_xwr68xx.aer4f : dpm_pipe.oer4f (.text:DPM_pipeInit)
                  00023a48    0000002c     libtrackerproc_xwr68xx.aer4f : trackerproc_3d.oer4f (.text:DPU_TrackerProc_init)
                  00023a74    0000002c     libedma_xwr68xx.aer4f : edma.oer4f (.text:EDMA_validate_channelIdchannelType)
                  00023aa0    0000002c     libgpio_xwr68xx.aer4f : gpio.oer4f (.text:GPIO_HighPriorityISR)
                  00023acc    0000002c                           : gpio.oer4f (.text:GPIO_LowPriorityISR)
                  00023af8    0000002c     libmmwave_xwr68xx.aer4f : mmwave_osal.oer4f (.text:MMWave_osalMutexCreate)
                  00023b24    0000002c                             : mmwave_osal.oer4f (.text:MMWave_osalSemCreate)
                  00023b50    0000002c     libsoc_xwr68xx.aer4f : soc_xwr68xx_mss.oer4f (.text:SOC_waitBSSPowerUp)
                  00023b7c    0000002c     libmmwavelink_xwr68xx.aer4f : rl_device.oer4f (.text:rlDeviceGetMssVersion)
                  00023ba8    0000002c                                 : rl_sensor.oer4f (.text:rlSensorStop)
                  00023bd4    0000002c     rtsv7R4_T_le_v3D16_eabi.lib : unlink.obj (.text)
                  00023c00    0000002c     mmw_mss_per4ft.oer4ft (.text:ti_sysbios_BIOS_atExitFunc__I)
                  00023c2c    0000002c     mmw_mss_per4ft.oer4ft (.text:ti_sysbios_knl_Clock_doTick__I)
                  00023c58    0000002c     mmw_mss_per4ft.oer4ft (.text:ti_sysbios_knl_Queue_construct)
                  00023c84    0000000a     libmathutils.aer4f : mathutils.oer4f (.text:mathUtils_floorLog2)
                  00023c8e    00000002     --HOLE-- [fill = 0]
                  00023c90    0000002c     sysbios.aer4ft : BIOS.obj (.text:ti_sysbios_timers_rti_Timer_periodicStub__E)
                  00023cbc    0000002a     objdetrangehwa.oer4f (.text:DPC_ObjDetRangeHwa_MemPoolAlloc)
                  00023ce6    0000002a     libdpm_xwr68xx.aer4f : dpm_pipe.oer4f (.text:DPM_pipeDeinit)
                  00023d10    0000002a     libedma_xwr68xx.aer4f : edma.oer4f (.text:EDMA_isError)
                  00023d3a    0000002a     mmwdemo_adcconfig.oer4f (.text:MmwDemo_ADCBufOpen)
                  00023d64    0000002a     libsoc_xwr68xx.aer4f : soc.oer4f (.text:SOC_SystemISR)
                  00023d8e    0000002a     libmmwavelink_xwr68xx.aer4f : rl_device.oer4f (.text:rlDeviceGetMmWaveLinkVersion)
                  00023db8    0000002a     rtsv7R4_T_le_v3D16_eabi.lib : strspn.obj (.text)
                  00023de2    00000002     --HOLE-- [fill = 0]
                  00023de4    00000028     libcbuff_xwr68xx.aer4f : cbuff.oer4f (.text:CBUFF_ErrorISR)
                  00023e0c    00000028                            : cbuff.oer4f (.text:CBUFF_FrameStartISR)
                  00023e34    00000028     objdetrangehwa.oer4f (.text:DPC_ObjDetRangeHwa_reconfigSubFrame)
                  00023e5c    00000028     libdpm_xwr68xx.aer4f : dpm_mailbox.oer4f (.text:DPM_mboxDeinit)
                  00023e84    00000028                          : dpm_msg.oer4f (.text:DPM_msgInitHeader)
                  00023eac    00000028     librangeproc_hwa_xwr68xx.aer4f : rangeprochwa.oer4f (.text:DPU_RangeProcHWA_deinit)
                  00023ed4    00000028     libmailbox_xwr68xx.aer4f : mailbox.oer4f (.text:Mailbox_Config_init)
                  00023efc    00000028     libuart_xwr68xx.aer4f : uartsci_dma.oer4f (.text:UartSci_RxDMACallbackFxn)
                  00023f24    00000028                           : uartsci_dma.oer4f (.text:UartSci_TxDMACallbackFxn)
                  00023f4c    00000028     libmmwavelink_xwr68xx.aer4f : rl_driver.oer4f (.text:rlDriverConstructInMsg)
                  00023f74    00000028     rtsv7R4_T_le_v3D16_eabi.lib : e_sqrtf.obj (.text)
                  00023f9c    00000028                                 : lseek.obj (.text)
                  00023fc4    00000028                                 : write.obj (.text)
                  00023fec    00000004     mmw_mss_per4ft.oer4ft (.text:ti_sysbios_family_arm_TaskSupport_Module__startupDone__S)
                  00023ff0    00000028     sysbios.aer4ft : BIOS.obj (.text:ti_sysbios_knl_Idle_run__E)
                  00024018    00000006     libedma_xwr68xx.aer4f : edma_low_level.oer4f (.text:EDMA3GetErrIntrStatus)
                  0002401e    00000002     --HOLE-- [fill = 0]
                  00024020    00000028     sysbios.aer4ft : BIOS.obj (.text:xdc_runtime_SysStd_abort__E)
                  00024048    00000006     libedma_xwr68xx.aer4f : edma_low_level.oer4f (.text:EDMA3QdmaGetErrIntrStatus)
                  0002404e    00000002     --HOLE-- [fill = 0]
                  00024050    00000028     sysbios.aer4ft : BIOS.obj (.text:xdc_runtime_System_aprintf_va__F)
                  00024078    00000026     libgtrack3D.aer4f : gtrack_listlib.oer4f (.text:gtrack_listEnqueue)
                  0002409e    00000026                       : gtrack_math.oer4f (.text:gtrack_vectorAdd)
                  000240c4    00000026                       : gtrack_math.oer4f (.text:gtrack_vectorSub)
                  000240ea    00000026     mmwdemo_monitor.oer4f (.text:mmwDemo_cfgRxSaturationMonitor)
                  00024110    00000026     libmmwavelink_xwr68xx.aer4f : rl_monitoring.oer4f (.text:rlRfAnaMonConfig)
                  00024136    00000026                                 : rl_sensor.oer4f (.text:rlRfInitCalibConfig)
                  0002415c    00000026                                 : rl_sensor.oer4f (.text:rlRfRunTimeCalibConfig)
                  00024182    00000026                                 : rl_monitoring.oer4f (.text:rlRfRxIfSatMonConfig)
                  000241a8    00000026                                 : rl_monitoring.oer4f (.text:rlRfRxSigImgMonConfig)
                  000241ce    00000026                                 : rl_sensor.oer4f (.text:rlRfSetCalMonFreqLimitConfig)
                  000241f4    00000026                                 : rl_sensor.oer4f (.text:rlRfSetDeviceCfg)
                  0002421a    00000026                                 : rl_sensor.oer4f (.text:rlRfSetLdoBypassConfig)
                  00024240    00000026                                 : rl_sensor.oer4f (.text:rlSetAdcOutConfig)
                  00024266    00000026                                 : rl_sensor.oer4f (.text:rlSetBpmCommonConfig)
                  0002428c    00000026                                 : rl_sensor.oer4f (.text:rlSetChannelConfig)
                  000242b2    00000026                                 : rl_sensor.oer4f (.text:rlSetContModeConfig)
                  000242d8    00000026     rtsv7R4_T_le_v3D16_eabi.lib : memcmp.obj (.text)
                  000242fe    00000002     --HOLE-- [fill = 0]
                  00024300    00000026     sysbios.aer4ft : BIOS.obj (.text:xdc_runtime_System_printf_va__F)
                  00024326    00000002     --HOLE-- [fill = 0]
                  00024328    00000025     mss_main.oer4f (.text:_MmwDemo_debugAssert)
                  0002434d    00000001     --HOLE-- [fill = 0]
                  0002434e    00000024     libcrc_xwr68xx.aer4f : crc.oer4f (.text:CRC_isTransactionIdValid)
                  00024372    00000002     --HOLE-- [fill = 0]
                  00024374    00000024     libedma_xwr68xx.aer4f : edma_low_level.oer4f (.text:EDMA3ClrEvt)
                  00024398    00000024                           : edma_low_level.oer4f (.text:EDMA3ClrIntr)
                  000243bc    00000024                           : edma_low_level.oer4f (.text:EDMA3DisableDmaEvt)
                  000243e0    00000024                           : edma_low_level.oer4f (.text:EDMA3DisableEvtIntr)
                  00024404    00000024                           : edma_low_level.oer4f (.text:EDMA3EnableDmaEvt)
                  00024428    00000024                           : edma_low_level.oer4f (.text:EDMA3EnableEvtIntr)
                  0002444c    00000024                           : edma.oer4f (.text:EDMA_clearTransferControllerErrors)
                  00024470    00000024     libgpio_xwr68xx.aer4f : gpio.oer4f (.text:GPIO_processInterrupt)
                  00024494    00000024     libhsiheader_xwr68xx.aer4f : hsiheader.oer4f (.text:HSIHeader_processUserBuffer)
                  000244b8    00000024     libsoc_xwr68xx.aer4f : soc_xwr68xx.oer4f (.text:SOC_isDSSOperational)
                  000244dc    00000024                          : soc_xwr68xx.oer4f (.text:SOC_isMMWaveDSSOperational)
                  00024500    00000024                          : soc_xwr68xx.oer4f (.text:SOC_isMMWaveMSSOperational)
                  00024524    00000024     libgtrack3D.aer4f : gtrack_listlib.oer4f (.text:gtrack_listDequeue)
                  00024548    00000024     libmmwavelink_xwr68xx.aer4f : rl_device.oer4f (.text:rlDeviceSetHsiClk)
                  0002456c    00000024                                 : rl_sensor.oer4f (.text:rlEnableContMode)
                  00024590    00000024                                 : rl_sensor.oer4f (.text:rlRfSetCalMonTimeUnitConfig)
                  000245b4    00000024                                 : rl_sensor.oer4f (.text:rlSetLowPowerModeConfig)
                  000245d8    00000024     mmw_mss_per4ft.oer4ft (.text:ti_sysbios_BIOS_registerRTSLock__I)
                  000245fc    00000024     mmw_mss_per4ft.oer4ft (.text:ti_sysbios_BIOS_removeRTSLock__I)
                  00024620    00000024     mmw_mss_per4ft.oer4ft (.text:ti_sysbios_gates_GateMutex_Object__delete__S)
                  00024644    0000000a     sysbios.aer4ft : tms570_Core_asm.obj (.text:ti_sysbios_family_arm_v7r_tms570_Core_getId__E)
                  0002464e    00000002     --HOLE-- [fill = 0]
                  00024650    00000024                    : BIOS.obj (.text:ti_sysbios_knl_Clock_Module_startup__E)
                  00024674    00000024     mmw_mss_per4ft.oer4ft (.text:ti_sysbios_knl_Semaphore_Object__delete__S)
                  00024698    00000022     libcbuff_xwr68xx.aer4f : cbuff_transfer.oer4f (.text:CBUFF_initLinkedList)
                  000246ba    00000022     libqspiflash_xwr68xx.aer4f : qspiflash.oer4f (.text:QSPIFlashReadCmd)
                  000246dc    00000022     libuart_xwr68xx.aer4f : uartsci.oer4f (.text:UartSci_disableRxDMA)
                  000246fe    00000022                           : uartsci.oer4f (.text:UartSci_enableRxDMA)
                  00024720    00000022     rtsv7R4_T_le_v3D16_eabi.lib : strcspn.obj (.text)
                  00024742    00000020     libdpm_xwr68xx.aer4f : dpm_listlib.oer4f (.text:DPM_listCat)
                  00024762    00000002     --HOLE-- [fill = 0]
                  00024764    00000020     libedma_xwr68xx.aer4f : edma_low_level.oer4f (.text:EDMA3QdmaClrMissEvt)
                  00024784    00000020     libesm_xwr68xx.aer4f : esm.oer4f (.text:ESM_lowpriority_IRQ)
                  000247a4    00000020     libhsiheader_xwr68xx.aer4f : hsiheader.oer4f (.text:HSIHeader_processCQ)
                  000247c4    00000020     libmmwave_xwr68xx.aer4f : mmwave_listlib.oer4f (.text:MMWave_listCat)
                  000247e4    00000020     libpinmux_xwr68xx.aer4f : pinmux.oer4f (.text:Pinmux_Unlock)
                  00024804    00000020     libgtrack3D.aer4f : gtrack_math.oer4f (.text:gtrack_vectorScalarMulAcc)
                  00024824    00000020     libmmwavelink_xwr68xx.aer4f : rl_sensor.oer4f (.text:rlRfInit)
                  00024844    0000000a     mmw_mss_per4ft.oer4ft (.text:xdc_runtime_IHeap_alloc)
                  0002484e    00000002     --HOLE-- [fill = 0]
                  00024850    00000020     sysbios.aer4ft : BIOS.obj (.text:ti_sysbios_family_arm_TaskSupport_stackUsed__E)
                  00024870    00000020                    : BIOS.obj (.text:ti_sysbios_family_arm_a15_TimestampProvider_autoRefreshFxn__I)
                  00024890    00000020                    : BIOS.obj (.text:ti_sysbios_family_arm_v7a_Pmu_Module_startup__E)
                  000248b0    00000020     mmw_mss_per4ft.oer4ft (.text:ti_sysbios_family_arm_v7r_vim_Hwi_Object__delete__S)
                  000248d0    00000020     sysbios.aer4ft : BIOS.obj (.text:ti_sysbios_family_arm_v7r_vim_Hwi_disableInterrupt__E)
                  000248f0    00000020                    : BIOS.obj (.text:ti_sysbios_family_arm_v7r_vim_Hwi_enableInterrupt__E)
                  00024910    00000020     mmw_mss_per4ft.oer4ft (.text:ti_sysbios_gates_GateHwi_Object__delete__S)
                  00024930    00000020     mmw_mss_per4ft.oer4ft (.text:ti_sysbios_heaps_HeapMem_Object__delete__S)
                  00024950    00000020     mmw_mss_per4ft.oer4ft (.text:ti_sysbios_knl_Semaphore_destruct)
                  00024970    00000020     mmw_mss_per4ft.oer4ft (.text:xdc_runtime_LoggerBuf_Object__delete__S)
                  00024990    0000001e     libdpm_xwr68xx.aer4f : dpm_pipe.oer4f (.text:DPM_pipeDequeue)
                  000249ae    0000001e     libmmwave_xwr68xx.aer4f : mmwave_fullcfg.oer4f (.text:MMWave_internalDelChirp)
                  000249cc    0000001e     libsoc_xwr68xx.aer4f : soc_xwr68xx_mss.oer4f (.text:SOC_getOutAddr_LUTType)
                  000249ea    0000001e     libgtrack3D.aer4f : gtrack_math.oer4f (.text:gtrack_matrixInit)
                  00024a08    0000001e     mmwdemo_monitor.oer4f (.text:mmwDemo_cfgRxSigImgMonitor)
                  00024a26    0000001e     mmw_mss_per4ft.oer4ft (.text:ti_sysbios_BIOS_errorRaiseHook__I)
                  00024a44    0000001c     libcrc_xwr68xx.aer4f : crc.oer4f (.text:CRC_releaseTransactionId)
                  00024a60    0000001c     libadcbuf_xwr68xx.aer4f : adcbuf_mmwave.oer4f (.text:CSL_FEXTR)
                  00024a7c    0000001c     libcbuff_xwr68xx.aer4f : cbuff.oer4f (.text:CSL_FEXTR)
                  00024a98    0000001c                            : cbuff_lvds.oer4f (.text:CSL_FEXTR)
                  00024ab4    0000001c     libdma_xwr68xx.aer4f : dma.oer4f (.text:CSL_FEXTR)
                  00024ad0    0000001c     libhsiheader_xwr68xx.aer4f : hsiheader.oer4f (.text:CSL_FEXTR)
                  00024aec    0000001c     libhwa_xwr68xx.aer4f : hwa.oer4f (.text:CSL_FEXTR)
                  00024b08    0000001c     libmmwave_xwr68xx.aer4f : mmwave.oer4f (.text:CSL_FEXTR)
                  00024b24    0000001c     libsoc_xwr68xx.aer4f : soc.oer4f (.text:CSL_FEXTR)
                  00024b40    0000001c                          : soc_xwr68xx.oer4f (.text:CSL_FEXTR)
                  00024b5c    0000001c                          : soc_xwr68xx_mss.oer4f (.text:CSL_FEXTR)
                  00024b78    0000001c     libuart_xwr68xx.aer4f : uartsci.oer4f (.text:CSL_FEXTR)
                  00024b94    0000001c     libdpm_xwr68xx.aer4f : dpm_listlib.oer4f (.text:DPM_listRemove)
                  00024bb0    0000001c     libmmwave_xwr68xx.aer4f : mmwave_listlib.oer4f (.text:MMWave_listRemove)
                  00024bcc    0000001c     mss_main.oer4f (.text:MmwDemo_DPC_ObjectDetection_processFrameBeginCallBackFxn)
                  00024be8    0000001c     mss_main.oer4f (.text:MmwDemo_DPC_ObjectDetection_processInterFrameCallBackFxn)
                  00024c04    0000001c     libsoc_xwr68xx.aer4f : soc_xwr68xx_mss.oer4f (.text:SOC_getInAddr_LUTType)
                  00024c20    0000001c     sysbios.aer4ft : arm_TaskSupport_asm.obj (.text:_ti_sysbios_family_arm_TaskSupport_glue)
                  00024c3c    0000001c                    : arm_TaskSupport_asm.obj (.text:_ti_sysbios_family_arm_TaskSupport_swap__E)
                  00024c58    0000001c     libgtrack3D.aer4f : gtrack_math.oer4f (.text:gtrack_matrixGetDiag)
                  00024c74    0000001c                       : gtrack_math.oer4f (.text:gtrack_vectorScalarMul)
                  00024c90    0000001c     rtsv7R4_T_le_v3D16_eabi.lib : memccpy.obj (.text)
                  00024cac    0000001c     mmw_mss_per4ft.oer4ft (.text:ti_sysbios_BIOS_rtsLock__I)
                  00024cc8    00000006     libosal_xwr68xx.aer4f : HwiP_tirtos.oer4f (.text:HwiP_restore)
                  00024cce    00000002     --HOLE-- [fill = 0]
                  00024cd0    0000001c     sysbios.aer4ft : BIOS.obj (.text:ti_sysbios_family_arm_v7r_vim_Hwi_clearInterrupt__E)
                  00024cec    00000004     mmw_mss_per4ft.oer4ft (.text:ti_sysbios_family_arm_v7r_vim_Hwi_delete)
                  00024cf0    0000001c     sysbios.aer4ft : BIOS.obj (.text:ti_sysbios_gates_GateMutex_Instance_init__E)
                  00024d0c    00000004     mmw_mss_per4ft.oer4ft (.text:ti_sysbios_heaps_HeapMem_Module_GateProxy_enter__E)
                  00024d10    0000001c     sysbios.aer4ft : BIOS.obj (.text:ti_sysbios_gates_GateMutex_leave__E)
                  00024d2c    0000001c     mmw_mss_per4ft.oer4ft (.text:ti_sysbios_knl_Queue_destruct)
                  00024d48    00000006     tracker_utils.oer4f (.text:gtrack_log)
                  00024d4e    00000002     --HOLE-- [fill = 0]
                  00024d50    0000001c     sysbios.aer4ft : BIOS.obj (.text:ti_sysbios_knl_Task_restoreHwi__E)
                  00024d6c    00000004     mmw_mss_per4ft.oer4ft (.text:ti_sysbios_heaps_HeapMem_Module_GateProxy_leave__E)
                  00024d70    0000001c     sysbios.aer4ft : BIOS.obj (.text:xdc_runtime_LoggerBuf_Instance_finalize__E)
                  00024d8c    0000001a     libcbuff_xwr68xx.aer4f : cbuff_lvds.oer4f (.text:CBUFF_finalizeLVDSLinkListParams)
                  00024da6    0000001a     objdetrangehwa.oer4f (.text:DPC_ObjDetRangeHwa_GenRangeWindow)
                  00024dc0    0000001a     libdpm_xwr68xx.aer4f : dpm_listlib.oer4f (.text:DPM_listAdd)
                  00024dda    0000001a                          : dpm_mailbox.oer4f (.text:DPM_mboxMsgSend)
                  00024df4    0000001a                          : dpm_msg.oer4f (.text:DPM_msgAssertHandler)
                  00024e0e    0000001a                          : dpm_msg.oer4f (.text:DPM_msgDPCInfoHandler)
                  00024e28    0000001a     libedma_xwr68xx.aer4f : edma_low_level.oer4f (.text:EDMA3SetPaRAM)
                  00024e42    0000001a     libmmwave_xwr68xx.aer4f : mmwave_dualcore.oer4f (.text:MMWave_deviceSyncFxn)
                  00024e5c    0000001a                             : mmwave.oer4f (.text:MMWave_encodeError)
                  00024e76    0000001a                             : mmwave_listlib.oer4f (.text:MMWave_listAdd)
                  00024e90    0000001a     mmw_mss_per4ft.oer4ft (.text:free)
                  00024eaa    0000001a     libmmwavelink_xwr68xx.aer4f : rl_sensor.oer4f (.text:rlGetRfDieId)
                  00024ec4    0000001a     rtsv7R4_T_le_v3D16_eabi.lib : s_copysign.obj (.text)
                  00024ede    0000001a     sysbios.aer4ft : a15_TimestampProvider_asm.obj (.text:ti_sysbios_family_arm_a15_TimestampProvider_initCCNT__I)
                  00024ef8    0000001a     mmw_mss_per4ft.oer4ft (.text:xdc_runtime_System_aprintf__E)
                  00024f12    0000001a     mmw_mss_per4ft.oer4ft (.text:xdc_runtime_System_printf__E)
                  00024f2c    00000018     libadcbuf_xwr68xx.aer4f : adcbuf_mmwave.oer4f (.text:ADCBUFContinuousModeCtrl)
                  00024f44    00000018     libcli_xwr68xx.aer4f : cli_mmwave.oer4f (.text:CLI_getMMWaveExtensionOpenConfig)
                  00024f5c    00000018     libcbuff_xwr68xx.aer4f : cbuff_transfer.oer4f (.text:CSL_FINSR)
                  00024f74    00000018     libdpm_xwr68xx.aer4f : dpm_msg.oer4f (.text:DPM_msgBSSFaultHandler)
                  00024f8c    00000018     libedma_xwr68xx.aer4f : edma_low_level.oer4f (.text:EDMA3DisableQdmaEvt)
                  00024fa4    00000018                           : edma_low_level.oer4f (.text:EDMA3EnableQdmaEvt)
                  00024fbc    00000018     libmmwave_xwr68xx.aer4f : mmwave_osal.oer4f (.text:MMWave_osalMutexLock)
                  00024fd4    00000018                             : mmwave_osal.oer4f (.text:MMWave_osalSemWait)
                  00024fec    00000018     libmailbox_xwr68xx.aer4f : mailbox.oer4f (.text:Mailbox_boxEmptyISRBss)
                  00025004    00000018                              : mailbox.oer4f (.text:Mailbox_boxEmptyISRMssDss)
                  0002501c    00000018                              : mailbox.oer4f (.text:Mailbox_boxFullISRBss)
                  00025034    00000018     tracker_utils.oer4f (.text:gtrack_alloc)
                  0002504c    00000018     libmmwavelink_xwr68xx.aer4f : rl_device.oer4f (.text:rlDeviceGetRfVersion)
                  00025064    00000018                                 : rl_driver.oer4f (.text:rlDriverCalCRC)
                  0002507c    00000018                                 : rl_driver.oer4f (.text:rlDriverFillPayload)
                  00025094    00000018     rtsv7R4_T_le_v3D16_eabi.lib : args_main.obj (.text)
                  000250ac    00000018                                 : strcmp.obj (.text)
                  000250c4    00000018     mmw_mss_per4ft.oer4ft (.text:ti_sysbios_BIOS_rtsUnlock__I)
                  000250dc    00000018     sysbios.aer4ft : BIOS.obj (.text:ti_sysbios_family_arm_v7a_Pmu_initCounters__I)
                  000250f4    00000018     mmw_mss_per4ft.oer4ft (.text:ti_sysbios_family_arm_v7r_vim_Hwi_Module__startupDone__F)
                  0002510c    00000018     mmw_mss_per4ft.oer4ft (.text:ti_sysbios_family_arm_v7r_vim_Hwi_Params__init__S)
                  00025124    00000018     mmw_mss_per4ft.oer4ft (.text:ti_sysbios_gates_GateHwi_Handle__label__S)
                  0002513c    00000018     mmw_mss_per4ft.oer4ft (.text:ti_sysbios_gates_GateMutex_Handle__label__S)
                  00025154    00000018     mmw_mss_per4ft.oer4ft (.text:ti_sysbios_heaps_HeapMem_Handle__label__S)
                  0002516c    00000018     mmw_mss_per4ft.oer4ft (.text:ti_sysbios_knl_Semaphore_Params__init__S)
                  00025184    00000018     mmw_mss_per4ft.oer4ft (.text:ti_sysbios_knl_Task_Params__init__S)
                  0002519c    00000004     mmw_mss_per4ft.oer4ft (.text:ti_sysbios_knl_Clock_TimerProxy_getMaxTicks__E)
                  000251a0    00000018     sysbios.aer4ft : BIOS.obj (.text:ti_sysbios_knl_Task_enter__I)
                  000251b8    00000018     mmw_mss_per4ft.oer4ft (.text:ti_sysbios_timers_rti_Timer_Module__startupDone__F)
                  000251d0    00000018     sysbios.aer4ft : BIOS.obj (.text:xdc_runtime_Error_init__E)
                  000251e8    00000018     mmw_mss_per4ft.oer4ft (.text:xdc_runtime_LoggerBuf_Handle__label__S)
                  00025200    00000016     libcbuff_xwr68xx.aer4f : cbuff_transfer.oer4f (.text:CBUFF_shutdownTransfer)
                  00025216    00000016     librangeproc_hwa_xwr68xx.aer4f : rangeprochwa.oer4f (.text:rangeProcHWA_EDMA_transferCompletionCallbackFxn)
                  0002522c    00000016     rtsv7R4_T_le_v3D16_eabi.lib : strchr.obj (.text)
                  00025242    00000016                                 : strlen.obj (.text)
                  00025258    00000016     mmw_mss_per4ft.oer4ft (.text:ti_sysbios_BIOS_exitFunc__I)
                  0002526e    00000002     --HOLE-- [fill = 0]
                  00025270    00000016     sysbios.aer4ft : BIOS.obj (.text:ti_sysbios_knl_Idle_loop__E)
                  00025286    0000000a     mmw_mss_per4ft.oer4ft (.text:xdc_runtime_IHeap_free)
                  00025290    00000016     sysbios.aer4ft : BIOS.obj (.text:ti_sysbios_knl_Task_sleepTimeout__I)
                  000252a6    00000014     libosal_xwr68xx.aer4f : CycleprofilerP_tirtos.oer4f (.text:CycleprofilerP_init)
                  000252ba    00000002     --HOLE-- [fill = 0]
                  000252bc    00000014     libedma_xwr68xx.aer4f : edma_low_level.oer4f (.text:EDMA3GetIntrStatus)
                  000252d0    00000014                           : edma_low_level.oer4f (.text:EDMA3IntrStatusHighGet)
                  000252e4    00000014                           : edma_low_level.oer4f (.text:EDMA3MapQdmaChToPaRAM)
                  000252f8    00000014     libosal_xwr68xx.aer4f : HwiP_tirtos.oer4f (.text:HwiP_Params_init)
                  0002530c    00000014     libmmwave_xwr68xx.aer4f : mmwave_fullcfg.oer4f (.text:MMWave_internalDelBpmChirp)
                  00025320    00000014                             : mmwave_fullcfg.oer4f (.text:MMWave_internalDelProfile)
                  00025334    00000014                             : mmwave_osal.oer4f (.text:MMWave_osalMutexDelete)
                  00025348    00000014                             : mmwave_osal.oer4f (.text:MMWave_osalSemDelete)
                  0002535c    00000014     mmwdemo_rfparser.oer4f (.text:MmwDemo_RFParser_getNumSubFrames)
                  00025370    00000014     libpinmux_xwr68xx.aer4f : pinmux.oer4f (.text:Pinmux_Lock)
                  00025384    00000014     libuart_xwr68xx.aer4f : uartsci.oer4f (.text:UartSci_disableTxDMA)
                  00025398    00000014                           : uartsci.oer4f (.text:UartSci_enableTxDMA)
                  000253ac    00000014     libosal_xwr68xx.aer4f : DebugP_tirtos.oer4f (.text:_DebugP_assert)
                  000253c0    00000014     libmathutils.aer4f : mathutils.oer4f (.text:mathUtils_ceilLog2)
                  000253d4    00000014     libmmwavelink_xwr68xx.aer4f : rl_controller.oer4f (.text:rlAppendDummy)
                  000253e8    00000014                                 : rl_driver.oer4f (.text:rlDriverIsDeviceMapValid)
                  000253fc    00000014     rtsv7R4_T_le_v3D16_eabi.lib : _lock.obj (.text)
                  00025410    00000014                                 : strcpy.obj (.text)
                  00025424    00000014     mmw_mss_per4ft.oer4ft (.text:ti_sysbios_heaps_HeapMem_Object__get__S)
                  00025438    00000014     mmw_mss_per4ft.oer4ft (.text:xdc_runtime_LoggerBuf_Object__get__S)
                  0002544c    00000012     libcrc_xwr68xx.aer4f : crc.oer4f (.text:CRC_initConfigParams)
                  0002545e    00000012     libedma_xwr68xx.aer4f : edma_low_level.oer4f (.text:EDMA3SetQdmaTrigWord)
                  00025470    00000012     libmmwave_xwr68xx.aer4f : mmwave_dualcore.oer4f (.text:MMWave_deviceGetDeviceInfo)
                  00025482    00000012     libosal_xwr68xx.aer4f : MemoryP_tirtos.oer4f (.text:MemoryP_ctrlAlloc)
                  00025494    00000012                           : SemaphoreP_tirtos.oer4f (.text:SemaphoreP_pend)
                  000254a6    00000012     libmathutils.aer4f : mathutils.oer4f (.text:mathUtils_pow2roundup)
                  000254b8    00000012     rtsv7R4_T_le_v3D16_eabi.lib : s_copysignf.obj (.text)
                  000254ca    00000006     libmmwavelink_xwr68xx.aer4f : rl_controller.oer4f (.text:rlGetSubBlockId)
                  000254d0    00000012     sysbios.aer4ft : BIOS.obj (.text:ti_sysbios_hal_Hwi_Module_startup__E)
                  000254e2    0000000e     libosal_xwr68xx.aer4f : SemaphoreP_tirtos.oer4f (.text:SemaphoreP_delete)
                  000254f0    00000012     sysbios.aer4ft : BIOS.obj (.text:xdc_runtime_LoggerBuf_write1__E)
                  00025502    0000000e     rtsv7R4_T_le_v3D16_eabi.lib : copy_decompress_none.obj (.text:decompress:none)
                  00025510    00000012     sysbios.aer4ft : BIOS.obj (.text:xdc_runtime_LoggerBuf_write2__E)
                  00025522    00000012     mmw_mss_per4ft.oer4ft (.text:xdc_runtime_Startup_exec__I)
                  00025534    00000010     libadcbuf_xwr68xx.aer4f : ADCBuf.oer4f (.text:ADCBuf_Params_init)
                  00025544    00000010     libcli_xwr68xx.aer4f : cli_mmwave.oer4f (.text:CLI_getMMWaveExtensionConfig)
                  00025554    00000010     libcrc_xwr68xx.aer4f : crc.oer4f (.text:CRC_getSignatureRegister)
                  00025564    00000010     libqspiflash_xwr68xx.aer4f : qspiflash.oer4f (.text:QSPIFlashWriteCmd)
                  00025574    00000010     libqspi_xwr68xx.aer4f : qspi.oer4f (.text:QSPI_Params_init)
                  00025584    00000010     tracker_utils.oer4f (.text:gtrack_free)
                  00025594    00000010     libgtrack3D.aer4f : gtrack_math.oer4f (.text:gtrack_vectorInit)
                  000255a4    0000000a     mmw_mss_per4ft.oer4ft (.text:xdc_runtime_IHeap_getStats)
                  000255ae    00000002     --HOLE-- [fill = 0]
                  000255b0    00000010     sysbios.aer4ft : BIOS.obj (.text:ti_sysbios_BIOS_getCpuFreq__E)
                  000255c0    00000010                    : BIOS.obj (.text:ti_sysbios_BIOS_setThreadType__E)
                  000255d0    00000010                    : BIOS.obj (.text:ti_sysbios_BIOS_start__E)
                  000255e0    00000010                    : BIOS.obj (.text:ti_sysbios_family_arm_a15_TimestampProvider_Module_startup__E)
                  000255f0    00000010                    : BIOS.obj (.text:ti_sysbios_family_arm_v7a_Pmu_disableInterruptI__E)
                  00025600    00000010                    : BIOS.obj (.text:ti_sysbios_family_arm_v7a_Pmu_enableInterruptI__E)
                  00025610    00000010                    : BIOS.obj (.text:ti_sysbios_family_arm_v7a_Pmu_getNumCounters__E)
                  00025620    00000010                    : BIOS.obj (.text:ti_sysbios_family_arm_v7a_Pmu_startCounterI__E)
                  00025630    00000010                    : BIOS.obj (.text:ti_sysbios_family_arm_v7a_Pmu_stopCounterI__E)
                  00025640    00000010                    : BIOS.obj (.text:ti_sysbios_gates_GateMutex_Instance_finalize__E)
                  00025650    00000010     mmw_mss_per4ft.oer4ft (.text:ti_sysbios_heaps_HeapBuf_Object__get__S)
                  00025660    00000010     sysbios.aer4ft : BIOS.obj (.text:ti_sysbios_knl_Semaphore_Instance_finalize__E)
                  00025670    00000010     mmw_mss_per4ft.oer4ft (.text:ti_sysbios_knl_Task_Object__get__S)
                  00025680    00000010     sysbios.aer4ft : BIOS.obj (.text:ti_sysbios_knl_Task_disable__E)
                  00025690    00000010                    : BIOS.obj (.text:xdc_runtime_LoggerBuf_write0__E)
                  000256a0    00000010                    : BIOS.obj (.text:xdc_runtime_Memory_free__E)
                  000256b0    00000010                    : BIOS.obj (.text:xdc_runtime_Memory_getStats__E)
                  000256c0    0000000e     libgtrack3D.aer4f : gtrack_unit_get.oer4f (.text:gtrack_unitGetH)
                  000256ce    0000000e     sysbios.aer4ft : a15_TimestampProvider_asm.obj (.text:ti_sysbios_family_arm_a15_TimestampProvider_getOverflowCCNT__I)
                  000256dc    00000004     mmw_mss_per4ft.oer4ft (.text:ti_sysbios_knl_Semaphore_delete)
                  000256e0    0000000e     sysbios.aer4ft : BIOS.obj (.text:ti_sysbios_knl_Queue_empty__E)
                  000256ee    00000002     --HOLE-- [fill = 0]
                  000256f0    0000000c                    : BIOS.obj (.text:ti_sysbios_family_arm_TaskSupport_checkStack__E)
                  000256fc    00000004     mmw_mss_per4ft.oer4ft (.text:xdc_runtime_LoggerBuf_Module_GateProxy_enter__E)
                  00025700    0000000c     sysbios.aer4ft : BIOS.obj (.text:ti_sysbios_family_arm_TaskSupport_getStackAlignment__E)
                  0002570c    00000004     mmw_mss_per4ft.oer4ft (.text:xdc_runtime_LoggerBuf_Module_GateProxy_leave__E)
                  00025710    0000000c     sysbios.aer4ft : BIOS.obj (.text:ti_sysbios_family_arm_exc_Exception_Module_startup__E)
                  0002571c    00000004     mmw_mss_per4ft.oer4ft (.text:xdc_runtime_System_Module_GateProxy_enter__E)
                  00025720    0000000c     sysbios.aer4ft : BIOS.obj (.text:ti_sysbios_family_arm_v7r_vim_Hwi_switchFromBootStack__E)
                  0002572c    00000004     mmw_mss_per4ft.oer4ft (.text:xdc_runtime_System_Module_GateProxy_leave__E)
                  00025730    0000000c     sysbios.aer4ft : BIOS.obj (.text:ti_sysbios_utils_Load_getCPULoad__E)
                  0002573c    00000004     --HOLE-- [fill = 0]
                  00025740    0000000c                    : BIOS.obj (.text:ti_sysbios_utils_Load_taskRegHook__E)
                  0002574c    00000004     --HOLE-- [fill = 0]
                  00025750    0000000c                    : BIOS.obj (.text:xdc_runtime_Startup_rtsDone__E)
                  0002575c    00000004     --HOLE-- [fill = 0]
                  00025760    0000000c                    : BIOS.obj (.text:xdc_runtime_SysStd_exit__E)
                  0002576c    00000004     --HOLE-- [fill = 0]
                  00025770    0000000a                    : BIOS.obj (.text:xdc_runtime_LoggerBuf_disable__E)
                  0002577a    00000006     libmmwavelink_xwr68xx.aer4f : rl_controller.oer4f (.text:rlGetSubBlockLen)
                  00025780    0000000a     sysbios.aer4ft : BIOS.obj (.text:xdc_runtime_LoggerBuf_enable__E)
                  0002578a    00000006                    : a15_TimestampProvider_asm.obj (.text:ti_sysbios_family_arm_a15_TimestampProvider_get32__E)
                  00025790    00000008                    : BIOS.obj (.text:ti_sysbios_gates_GateHwi_enter__E)
                  00025798    00000008     --HOLE-- [fill = 0]
                  000257a0    00000006                    : BIOS.obj (.text:ti_sysbios_family_arm_v7r_vim_Hwi_startup__E)
                  000257a6    0000000a     --HOLE-- [fill = 0]
                  000257b0    00000006                    : BIOS.obj (.text:ti_sysbios_gates_GateHwi_leave__E)
                  000257b6    0000000a     --HOLE-- [fill = 0]
                  000257c0    00000006                    : BIOS.obj (.text:ti_sysbios_heaps_HeapMem_isBlocking__E)
                  000257c6    0000000a     --HOLE-- [fill = 0]
                  000257d0    00000006                    : BIOS.obj (.text:ti_sysbios_knl_Queue_Instance_init__E)
                  000257d6    0000000a     --HOLE-- [fill = 0]
                  000257e0    00000006                    : BIOS.obj (.text:xdc_runtime_System_Module_startup__E)
                  000257e6    0000000a     --HOLE-- [fill = 0]
                  000257f0    00000004                    : BIOS.obj (.text:ti_sysbios_gates_GateHwi_query__E)
                  000257f4    0000000c     --HOLE-- [fill = 0]
                  00025800    00000004                    : BIOS.obj (.text:ti_sysbios_gates_GateMutex_query__E)
                  00025804    0000000c     --HOLE-- [fill = 0]
                  00025810    00000004                    : BIOS.obj (.text:ti_sysbios_knl_Task_startup__E)
                  00025814    0000000c     --HOLE-- [fill = 0]
                  00025820    00000004                    : BIOS.obj (.text:ti_sysbios_timers_rti_Timer_getMaxTicks__E)
                  00025824    0000000c     --HOLE-- [fill = 0]
                  00025830    00000004                    : BIOS.obj (.text:xdc_runtime_SysStd_putch__E)
                  00025834    0000000c     --HOLE-- [fill = 0]
                  00025840    00000004                    : BIOS.obj (.text:xdc_runtime_SysStd_ready__E)
                  00025844    0000000c     --HOLE-- [fill = 0]
                  00025850    00000002                    : BIOS.obj (.text:ti_sysbios_BIOS_linkedWithIncorrectBootLibrary__E)
                  00025852    0000000e     --HOLE-- [fill = 0]
                  00025860    00000002                    : BIOS.obj (.text:ti_sysbios_gates_GateHwi_Instance_init__E)

.const     0    00025868    0000230c     
                  00025868    00000b50     libgtrack3D.aer4f : gtrack_math.oer4f (.const:$O1$$)
                  000263b8    00000458                       : gtrack_create.oer4f (.const:$O1$$)
                  00026810    000002fe     mmw_cli.oer4f (.const:.string)
                  00026b0e    00000002     mmw_mss_per4ft.oer4ft (.const:ti_sysbios_family_arm_exc_Exception_Module__id__C)
                  00026b10    000002b8     libmmwavelink_xwr68xx.aer4f : rl_sensor.oer4f (.const:$O1$$)
                  00026dc8    00000158     rtsv7R4_T_le_v3D16_eabi.lib : k_rem_pio2.obj (.const:$O1$$)
                  00026f20    00000101                                 : ctype.obj (.const:.string:_ctypes_)
                  00027021    00000001     mmw_mss_per4ft.oer4ft (.const:xdc_runtime_Text_charTab__A)
                  00027022    00000002     mmw_mss_per4ft.oer4ft (.const:ti_sysbios_family_arm_v7a_Pmu_Module__id__C)
                  00027024    000000a0     libcli_xwr68xx.aer4f : cli_mmwave.oer4f (.const:.string)
                  000270c4    00000004                          : cli.oer4f (.const:.string:$P$T0$1)
                  000270c8    00000098     rtsv7R4_T_le_v3D16_eabi.lib : strtod.obj (.const:$O1$$)
                  00027160    00000088     libmmwavelink_xwr68xx.aer4f : rl_driver.oer4f (.const:$O2$$)
                  000271e8    00000080     mmw_mss_per4ft.oer4ft (.const:ti_sysbios_family_arm_v7r_vim_Hwi_channelMap__A)
                  00027268    00000058     mmw_mss_per4ft.oer4ft (.const:.string)
                  000272c0    00000044     mmw_mss_per4ft.oer4ft (.const:ti_sysbios_knl_Task_Object__PARAMS__C)
                  00027304    00000040     libhwa_xwr68xx.aer4f : hwa.oer4f (.const:gHwaTrigSignatures)
                  00027344    0000003c     libuart_xwr68xx.aer4f : UART.oer4f (.const:UART_defaultParams)
                  00027380    0000003c     mmw_mss_per4ft.oer4ft (.const:xdc_runtime_LoggerBuf_Module__FXNS__C)
                  000273bc    00000038     libedma_xwr68xx.aer4f : edma_xwr1xxx.oer4f (.const:gEdmaHwAttrs)
                  000273f4    00000034     rtsv7R4_T_le_v3D16_eabi.lib : s_atanf.obj (.const:$O1$$)
                  00027428    00000030                                 : s_tanf.obj (.const:T)
                  00027458    00000030     mmw_mss_per4ft.oer4ft (.const:ti_sysbios_family_arm_v7r_vim_Hwi_Object__PARAMS__C)
                  00027488    00000030     mmw_mss_per4ft.oer4ft (.const:xdc_runtime_Startup_sfxnTab__A)
                  000274b8    00000028     libdpm_xwr68xx.aer4f : dpm_msg.oer4f (.const:gDPMMessageFxnTable)
                  000274e0    00000028     mmw_mss_per4ft.oer4ft (.const:ti_sysbios_heaps_HeapMem_Module__FXNS__C)
                  00027508    00000028     mmw_mss_per4ft.oer4ft (.const:xdc_runtime_LoggerBuf_Object__PARAMS__C)
                  00027530    00000024     libmailbox_xwr68xx.aer4f : mailbox.oer4f (.const:Mailbox_defaultCfg)
                  00027554    00000024     libgtrack3D.aer4f : gtrack_utilities_3d.oer4f (.const:pInit)
                  00027578    00000024     mmw_mss_per4ft.oer4ft (.const:ti_sysbios_gates_GateHwi_Module__FXNS__C)
                  0002759c    00000024     mmw_mss_per4ft.oer4ft (.const:ti_sysbios_gates_GateMutex_Module__FXNS__C)
                  000275c0    00000024     mmw_mss_per4ft.oer4ft (.const:ti_sysbios_heaps_HeapMem_Object__PARAMS__C)
                  000275e4    00000024     mmw_mss_per4ft.oer4ft (.const:ti_sysbios_knl_Semaphore_Object__PARAMS__C)
                  00027608    00000020     libcli_xwr68xx.aer4f : cli_mmwave.oer4f (.const:$P$T0$1)
                  00027628    00000020     libhwa_xwr68xx.aer4f : hwa.oer4f (.const:$P$T0$1)
                  00027648    00000020     mmw_mss_per4ft.oer4ft (.const:ti_sysbios_family_arm_v7r_vim_Hwi_Object__DESC__C)
                  00027668    00000020     mmw_mss_per4ft.oer4ft (.const:ti_sysbios_gates_GateHwi_Object__DESC__C)
                  00027688    00000020     mmw_mss_per4ft.oer4ft (.const:ti_sysbios_gates_GateMutex_Object__DESC__C)
                  000276a8    00000020     mmw_mss_per4ft.oer4ft (.const:ti_sysbios_heaps_HeapMem_Object__DESC__C)
                  000276c8    00000020     mmw_mss_per4ft.oer4ft (.const:ti_sysbios_knl_Queue_Object__DESC__C)
                  000276e8    00000020     mmw_mss_per4ft.oer4ft (.const:ti_sysbios_knl_Semaphore_Object__DESC__C)
                  00027708    00000020     mmw_mss_per4ft.oer4ft (.const:ti_sysbios_knl_Task_Object__DESC__C)
                  00027728    00000020     mmw_mss_per4ft.oer4ft (.const:xdc_runtime_LoggerBuf_Object__DESC__C)
                  00027748    00000018     rtsv7R4_T_le_v3D16_eabi.lib : e_powf.obj (.const:$O1$$)
                  00027760    00000018     mmw_mss_per4ft.oer4ft (.const:ti_sysbios_gates_GateHwi_Object__PARAMS__C)
                  00027778    00000018     mmw_mss_per4ft.oer4ft (.const:ti_sysbios_gates_GateMutex_Object__PARAMS__C)
                  00027790    00000018     mmw_mss_per4ft.oer4ft (.const:ti_sysbios_knl_Queue_Object__PARAMS__C)
                  000277a8    00000018     mmw_mss_per4ft.oer4ft (.const:ti_sysbios_knl_Task_hooks__A)
                  000277c0    00000018     mmw_mss_per4ft.oer4ft (.const:xdc_runtime_Startup_sfxnRts__A)
                  000277d8    00000014     libadcbuf_xwr68xx.aer4f : adcbuf_mmwave.oer4f (.const:gADCBufFxnTable)
                  000277ec    00000010                             : ADCBuf.oer4f (.const:ADCBuf_defaultParams)
                  000277fc    00000010     libedma_xwr68xx.aer4f : edma.oer4f (.const:EDMA_config$1)
                  0002780c    00000010     libqspi_xwr68xx.aer4f : qspi.oer4f (.const:QSPI_defaultParams)
                  0002781c    00000010     libadcbuf_xwr68xx.aer4f : adcbuf_xwr1xxx.oer4f (.const:gADCBufHwCfg)
                  0002782c    00000010     libgtrack3D.aer4f : gtrack_utilities_3d.oer4f (.const:spreadInit)
                  0002783c    00000010                       : gtrack_utilities_3d.oer4f (.const:spreadMin)
                  0002784c    00000010     mmw_mss_per4ft.oer4ft (.const:ti_sysbios_family_arm_v7r_vim_Hwi_intReqEnaSet__A)
                  0002785c    00000010     mmw_mss_per4ft.oer4ft (.const:ti_sysbios_family_arm_v7r_vim_Hwi_wakeEnaSet__A)
                  0002786c    0000000c     mmw_mss_per4ft.oer4ft (.const:ti_sysbios_knl_Idle_funcList__A)
                  00027878    00000008     mmw_mss_per4ft.oer4ft (.const:ti_sysbios_knl_Idle_funcList__C)
                  00027880    00000008     mmw_mss_per4ft.oer4ft (.const:ti_sysbios_knl_Task_hooks__C)
                  00027888    00000008     mmw_mss_per4ft.oer4ft (.const:xdc_runtime_Startup_firstFxns__A)
                  00027890    00000008     mmw_mss_per4ft.oer4ft (.const:xdc_runtime_Startup_firstFxns__C)
                  00027898    00000008     mmw_mss_per4ft.oer4ft (.const:xdc_runtime_Startup_lastFxns__C)
                  000278a0    00000004     mmw_mss_per4ft.oer4ft (.const:ti_sysbios_family_arm_TaskSupport_stackAlignment__C)
                  000278a4    00000004     mmw_mss_per4ft.oer4ft (.const:ti_sysbios_family_arm_exc_Exception_E_dataAbort__C)
                  000278a8    00000004     mmw_mss_per4ft.oer4ft (.const:ti_sysbios_family_arm_exc_Exception_E_prefetchAbort__C)
                  000278ac    00000004     mmw_mss_per4ft.oer4ft (.const:ti_sysbios_family_arm_exc_Exception_E_swi__C)
                  000278b0    00000004     mmw_mss_per4ft.oer4ft (.const:ti_sysbios_family_arm_exc_Exception_E_undefinedInstruction__C)
                  000278b4    00000004     mmw_mss_per4ft.oer4ft (.const:ti_sysbios_family_arm_exc_Exception_excHookFuncs__A)
                  000278b8    00000004     mmw_mss_per4ft.oer4ft (.const:ti_sysbios_family_arm_exc_Exception_excHookFuncs__C)
                  000278bc    00000004     mmw_mss_per4ft.oer4ft (.const:ti_sysbios_family_arm_v7a_Pmu_A_invalidCounterId__C)
                  000278c0    00000004     mmw_mss_per4ft.oer4ft (.const:ti_sysbios_family_arm_v7a_Pmu_Module__diagsEnabled__C)
                  000278c4    00000004     mmw_mss_per4ft.oer4ft (.const:ti_sysbios_family_arm_v7a_Pmu_Module__diagsIncluded__C)
                  000278c8    00000004     mmw_mss_per4ft.oer4ft (.const:ti_sysbios_family_arm_v7a_Pmu_Module__diagsMask__C)
                  000278cc    00000004     mmw_mss_per4ft.oer4ft (.const:ti_sysbios_family_arm_v7r_tms570_Core_E_mismatchedIds__C)
                  000278d0    00000004     mmw_mss_per4ft.oer4ft (.const:ti_sysbios_family_arm_v7r_tms570_Core_id__C)
                  000278d4    00000004     mmw_mss_per4ft.oer4ft (.const:ti_sysbios_family_arm_v7r_vim_Hwi_A_badChannelId__C)
                  000278d8    00000004     mmw_mss_per4ft.oer4ft (.const:ti_sysbios_family_arm_v7r_vim_Hwi_E_alreadyDefined__C)
                  000278dc    00000004     mmw_mss_per4ft.oer4ft (.const:ti_sysbios_family_arm_v7r_vim_Hwi_E_badIntNum__C)
                  000278e0    00000004     mmw_mss_per4ft.oer4ft (.const:ti_sysbios_family_arm_v7r_vim_Hwi_E_phantomInterrupt__C)
                  000278e4    00000004     mmw_mss_per4ft.oer4ft (.const:ti_sysbios_family_arm_v7r_vim_Hwi_E_undefined__C)
                  000278e8    00000004     mmw_mss_per4ft.oer4ft (.const:ti_sysbios_family_arm_v7r_vim_Hwi_E_unsupportedMaskingOption__C)
                  000278ec    00000004     mmw_mss_per4ft.oer4ft (.const:ti_sysbios_family_arm_v7r_vim_Hwi_LD_end__C)
                  000278f0    00000004     mmw_mss_per4ft.oer4ft (.const:ti_sysbios_family_arm_v7r_vim_Hwi_LM_begin__C)
                  000278f4    00000004     mmw_mss_per4ft.oer4ft (.const:ti_sysbios_family_arm_v7r_vim_Hwi_Module__diagsEnabled__C)
                  000278f8    00000004     mmw_mss_per4ft.oer4ft (.const:ti_sysbios_family_arm_v7r_vim_Hwi_Module__diagsIncluded__C)
                  000278fc    00000004     mmw_mss_per4ft.oer4ft (.const:ti_sysbios_family_arm_v7r_vim_Hwi_Module__diagsMask__C)
                  00027900    00000004     mmw_mss_per4ft.oer4ft (.const:ti_sysbios_family_arm_v7r_vim_Hwi_Module__loggerFxn1__C)
                  00027904    00000004     mmw_mss_per4ft.oer4ft (.const:ti_sysbios_family_arm_v7r_vim_Hwi_Module__loggerFxn8__C)
                  00027908    00000004     mmw_mss_per4ft.oer4ft (.const:ti_sysbios_family_arm_v7r_vim_Hwi_Module__loggerObj__C)
                  0002790c    00000004     mmw_mss_per4ft.oer4ft (.const:ti_sysbios_family_arm_v7r_vim_Hwi_NUM_INTERRUPTS__C)
                  00027910    00000004     mmw_mss_per4ft.oer4ft (.const:ti_sysbios_family_arm_v7r_vim_Hwi_channelMap__C)
                  00027914    00000004     mmw_mss_per4ft.oer4ft (.const:ti_sysbios_family_arm_v7r_vim_Hwi_intReqEnaSet__C)
                  00027918    00000004     mmw_mss_per4ft.oer4ft (.const:ti_sysbios_family_arm_v7r_vim_Hwi_phantomFunc__C)
                  0002791c    00000004     mmw_mss_per4ft.oer4ft (.const:ti_sysbios_family_arm_v7r_vim_Hwi_taskDisable__C)
                  00027920    00000004     mmw_mss_per4ft.oer4ft (.const:ti_sysbios_family_arm_v7r_vim_Hwi_taskRestoreHwi__C)
                  00027924    00000004     mmw_mss_per4ft.oer4ft (.const:ti_sysbios_family_arm_v7r_vim_Hwi_wakeEnaSet__C)
                  00027928    00000004     mmw_mss_per4ft.oer4ft (.const:ti_sysbios_gates_GateMutex_A_badContext__C)
                  0002792c    00000004     mmw_mss_per4ft.oer4ft (.const:ti_sysbios_gates_GateMutex_Instance_State_sem__O)
                  00027930    00000004     mmw_mss_per4ft.oer4ft (.const:ti_sysbios_gates_GateMutex_Module__diagsEnabled__C)
                  00027934    00000004     mmw_mss_per4ft.oer4ft (.const:ti_sysbios_gates_GateMutex_Module__diagsIncluded__C)
                  00027938    00000004     mmw_mss_per4ft.oer4ft (.const:ti_sysbios_gates_GateMutex_Module__diagsMask__C)
                  0002793c    00000004     mmw_mss_per4ft.oer4ft (.const:ti_sysbios_hal_Hwi_E_stackOverflow__C)
                  00027940    00000004     mmw_mss_per4ft.oer4ft (.const:ti_sysbios_heaps_HeapBuf_Instance_State_freeList__O)
                  00027944    00000004     mmw_mss_per4ft.oer4ft (.const:ti_sysbios_heaps_HeapBuf_Object__count__C)
                  00027948    00000004     mmw_mss_per4ft.oer4ft (.const:ti_sysbios_heaps_HeapBuf_numConstructedHeaps__C)
                  0002794c    00000004     mmw_mss_per4ft.oer4ft (.const:ti_sysbios_heaps_HeapMem_A_align__C)
                  00027950    00000004     mmw_mss_per4ft.oer4ft (.const:ti_sysbios_heaps_HeapMem_A_heapSize__C)
                  00027954    00000004     mmw_mss_per4ft.oer4ft (.const:ti_sysbios_heaps_HeapMem_A_invalidFree__C)
                  00027958    00000004     mmw_mss_per4ft.oer4ft (.const:ti_sysbios_heaps_HeapMem_A_zeroBlock__C)
                  0002795c    00000004     mmw_mss_per4ft.oer4ft (.const:ti_sysbios_heaps_HeapMem_E_memory__C)
                  00027960    00000004     mmw_mss_per4ft.oer4ft (.const:ti_sysbios_heaps_HeapMem_Module__diagsEnabled__C)
                  00027964    00000004     mmw_mss_per4ft.oer4ft (.const:ti_sysbios_heaps_HeapMem_Module__diagsIncluded__C)
                  00027968    00000004     mmw_mss_per4ft.oer4ft (.const:ti_sysbios_heaps_HeapMem_Module__diagsMask__C)
                  0002796c    00000004     mmw_mss_per4ft.oer4ft (.const:ti_sysbios_heaps_HeapMem_Module__gateObj__C)
                  00027970    00000004     mmw_mss_per4ft.oer4ft (.const:ti_sysbios_heaps_HeapMem_Object__count__C)
                  00027974    00000004     mmw_mss_per4ft.oer4ft (.const:ti_sysbios_heaps_HeapMem_reqAlign__C)
                  00027978    00000004     mmw_mss_per4ft.oer4ft (.const:ti_sysbios_knl_Clock_LM_begin__C)
                  0002797c    00000004     mmw_mss_per4ft.oer4ft (.const:ti_sysbios_knl_Clock_LM_tick__C)
                  00027980    00000004     mmw_mss_per4ft.oer4ft (.const:ti_sysbios_knl_Clock_LW_delayed__C)
                  00027984    00000004     mmw_mss_per4ft.oer4ft (.const:ti_sysbios_knl_Clock_Module_State_clockQ__O)
                  00027988    00000004     mmw_mss_per4ft.oer4ft (.const:ti_sysbios_knl_Clock_Module__diagsEnabled__C)
                  0002798c    00000004     mmw_mss_per4ft.oer4ft (.const:ti_sysbios_knl_Clock_Module__diagsIncluded__C)
                  00027990    00000004     mmw_mss_per4ft.oer4ft (.const:ti_sysbios_knl_Clock_Module__diagsMask__C)
                  00027994    00000004     mmw_mss_per4ft.oer4ft (.const:ti_sysbios_knl_Clock_Module__loggerFxn1__C)
                  00027998    00000004     mmw_mss_per4ft.oer4ft (.const:ti_sysbios_knl_Clock_Module__loggerFxn2__C)
                  0002799c    00000004     mmw_mss_per4ft.oer4ft (.const:ti_sysbios_knl_Clock_Module__loggerObj__C)
                  000279a0    00000004     mmw_mss_per4ft.oer4ft (.const:ti_sysbios_knl_Semaphore_A_badContext__C)
                  000279a4    00000004     mmw_mss_per4ft.oer4ft (.const:ti_sysbios_knl_Semaphore_A_noEvents__C)
                  000279a8    00000004     mmw_mss_per4ft.oer4ft (.const:ti_sysbios_knl_Semaphore_A_overflow__C)
                  000279ac    00000004     mmw_mss_per4ft.oer4ft (.const:ti_sysbios_knl_Semaphore_A_pendTaskDisabled__C)
                  000279b0    00000004     mmw_mss_per4ft.oer4ft (.const:ti_sysbios_knl_Semaphore_Instance_State_pendQ__O)
                  000279b4    00000004     mmw_mss_per4ft.oer4ft (.const:ti_sysbios_knl_Semaphore_LM_pend__C)
                  000279b8    00000004     mmw_mss_per4ft.oer4ft (.const:ti_sysbios_knl_Semaphore_LM_post__C)
                  000279bc    00000004     mmw_mss_per4ft.oer4ft (.const:ti_sysbios_knl_Semaphore_Module__diagsEnabled__C)
                  000279c0    00000004     mmw_mss_per4ft.oer4ft (.const:ti_sysbios_knl_Semaphore_Module__diagsIncluded__C)
                  000279c4    00000004     mmw_mss_per4ft.oer4ft (.const:ti_sysbios_knl_Semaphore_Module__diagsMask__C)
                  000279c8    00000004     mmw_mss_per4ft.oer4ft (.const:ti_sysbios_knl_Semaphore_Module__loggerFxn2__C)
                  000279cc    00000004     mmw_mss_per4ft.oer4ft (.const:ti_sysbios_knl_Semaphore_Module__loggerFxn4__C)
                  000279d0    00000004     mmw_mss_per4ft.oer4ft (.const:ti_sysbios_knl_Semaphore_Module__loggerObj__C)
                  000279d4    00000004     mmw_mss_per4ft.oer4ft (.const:ti_sysbios_knl_Task_A_badPriority__C)
                  000279d8    00000004     mmw_mss_per4ft.oer4ft (.const:ti_sysbios_knl_Task_A_badTaskState__C)
                  000279dc    00000004     mmw_mss_per4ft.oer4ft (.const:ti_sysbios_knl_Task_A_badThreadType__C)
                  000279e0    00000004     mmw_mss_per4ft.oer4ft (.const:ti_sysbios_knl_Task_A_badTimeout__C)
                  000279e4    00000004     mmw_mss_per4ft.oer4ft (.const:ti_sysbios_knl_Task_A_noPendElem__C)
                  000279e8    00000004     mmw_mss_per4ft.oer4ft (.const:ti_sysbios_knl_Task_A_sleepTaskDisabled__C)
                  000279ec    00000004     mmw_mss_per4ft.oer4ft (.const:ti_sysbios_knl_Task_E_spOutOfBounds__C)
                  000279f0    00000004     mmw_mss_per4ft.oer4ft (.const:ti_sysbios_knl_Task_E_stackOverflow__C)
                  000279f4    00000004     mmw_mss_per4ft.oer4ft (.const:ti_sysbios_knl_Task_LD_block__C)
                  000279f8    00000004     mmw_mss_per4ft.oer4ft (.const:ti_sysbios_knl_Task_LD_exit__C)
                  000279fc    00000004     mmw_mss_per4ft.oer4ft (.const:ti_sysbios_knl_Task_LD_ready__C)
                  00027a00    00000004     mmw_mss_per4ft.oer4ft (.const:ti_sysbios_knl_Task_LM_sleep__C)
                  00027a04    00000004     mmw_mss_per4ft.oer4ft (.const:ti_sysbios_knl_Task_LM_switch__C)
                  00027a08    00000004     mmw_mss_per4ft.oer4ft (.const:ti_sysbios_knl_Task_Module_State_inactiveQ__O)
                  00027a0c    00000004     mmw_mss_per4ft.oer4ft (.const:ti_sysbios_knl_Task_Module__diagsEnabled__C)
                  00027a10    00000004     mmw_mss_per4ft.oer4ft (.const:ti_sysbios_knl_Task_Module__diagsIncluded__C)
                  00027a14    00000004     mmw_mss_per4ft.oer4ft (.const:ti_sysbios_knl_Task_Module__diagsMask__C)
                  00027a18    00000004     mmw_mss_per4ft.oer4ft (.const:ti_sysbios_knl_Task_Module__loggerFxn2__C)
                  00027a1c    00000004     mmw_mss_per4ft.oer4ft (.const:ti_sysbios_knl_Task_Module__loggerFxn4__C)
                  00027a20    00000004     mmw_mss_per4ft.oer4ft (.const:ti_sysbios_knl_Task_Module__loggerObj__C)
                  00027a24    00000004     mmw_mss_per4ft.oer4ft (.const:ti_sysbios_knl_Task_Object__count__C)
                  00027a28    00000004     mmw_mss_per4ft.oer4ft (.const:ti_sysbios_knl_Task_Object__heap__C)
                  00027a2c    00000004     mmw_mss_per4ft.oer4ft (.const:ti_sysbios_knl_Task_allBlockedFunc__C)
                  00027a30    00000004     mmw_mss_per4ft.oer4ft (.const:ti_sysbios_knl_Task_defaultStackHeap__C)
                  00027a34    00000004     mmw_mss_per4ft.oer4ft (.const:ti_sysbios_knl_Task_defaultStackSize__C)
                  00027a38    00000004     mmw_mss_per4ft.oer4ft (.const:ti_sysbios_knl_Task_numConstructedTasks__C)
                  00027a3c    00000004     mmw_mss_per4ft.oer4ft (.const:ti_sysbios_timers_rti_Timer_E_cannotSupport__C)
                  00027a40    00000004     mmw_mss_per4ft.oer4ft (.const:ti_sysbios_timers_rti_Timer_Module__diagsEnabled__C)
                  00027a44    00000004     mmw_mss_per4ft.oer4ft (.const:ti_sysbios_timers_rti_Timer_Module__diagsIncluded__C)
                  00027a48    00000004     mmw_mss_per4ft.oer4ft (.const:ti_sysbios_timers_rti_Timer_Module__diagsMask__C)
                  00027a4c    00000004     mmw_mss_per4ft.oer4ft (.const:ti_sysbios_timers_rti_Timer_numTimerDevices__C)
                  00027a50    00000004     mmw_mss_per4ft.oer4ft (.const:ti_sysbios_timers_rti_Timer_startupNeeded__C)
                  00027a54    00000004     mmw_mss_per4ft.oer4ft (.const:ti_sysbios_utils_Load_LS_cpuLoad__C)
                  00027a58    00000004     mmw_mss_per4ft.oer4ft (.const:ti_sysbios_utils_Load_LS_taskLoad__C)
                  00027a5c    00000004     mmw_mss_per4ft.oer4ft (.const:ti_sysbios_utils_Load_Module_State_taskList__O)
                  00027a60    00000004     mmw_mss_per4ft.oer4ft (.const:ti_sysbios_utils_Load_Module__diagsEnabled__C)
                  00027a64    00000004     mmw_mss_per4ft.oer4ft (.const:ti_sysbios_utils_Load_Module__diagsIncluded__C)
                  00027a68    00000004     mmw_mss_per4ft.oer4ft (.const:ti_sysbios_utils_Load_Module__diagsMask__C)
                  00027a6c    00000004     mmw_mss_per4ft.oer4ft (.const:ti_sysbios_utils_Load_Module__loggerFxn1__C)
                  00027a70    00000004     mmw_mss_per4ft.oer4ft (.const:ti_sysbios_utils_Load_Module__loggerFxn4__C)
                  00027a74    00000004     mmw_mss_per4ft.oer4ft (.const:ti_sysbios_utils_Load_Module__loggerObj__C)
                  00027a78    00000004     mmw_mss_per4ft.oer4ft (.const:ti_sysbios_utils_Load_postUpdate__C)
                  00027a7c    00000004     mmw_mss_per4ft.oer4ft (.const:ti_sysbios_utils_Load_windowInMs__C)
                  00027a80    00000004     mmw_mss_per4ft.oer4ft (.const:xdc_runtime_Assert_E_assertFailed__C)
                  00027a84    00000004     mmw_mss_per4ft.oer4ft (.const:xdc_runtime_Core_A_initializedParams__C)
                  00027a88    00000004     mmw_mss_per4ft.oer4ft (.const:xdc_runtime_Core_Module__diagsEnabled__C)
                  00027a8c    00000004     mmw_mss_per4ft.oer4ft (.const:xdc_runtime_Core_Module__diagsIncluded__C)
                  00027a90    00000004     mmw_mss_per4ft.oer4ft (.const:xdc_runtime_Core_Module__diagsMask__C)
                  00027a94    00000004     mmw_mss_per4ft.oer4ft (.const:xdc_runtime_Error_E_memory__C)
                  00027a98    00000004     mmw_mss_per4ft.oer4ft (.const:xdc_runtime_Error_Module__diagsEnabled__C)
                  00027a9c    00000004     mmw_mss_per4ft.oer4ft (.const:xdc_runtime_Error_Module__diagsIncluded__C)
                  00027aa0    00000004     mmw_mss_per4ft.oer4ft (.const:xdc_runtime_Error_Module__diagsMask__C)
                  00027aa4    00000004     mmw_mss_per4ft.oer4ft (.const:xdc_runtime_Error_Module__loggerFxn8__C)
                  00027aa8    00000004     mmw_mss_per4ft.oer4ft (.const:xdc_runtime_Error_Module__loggerObj__C)
                  00027aac    00000004     mmw_mss_per4ft.oer4ft (.const:xdc_runtime_Error_policyFxn__C)
                  00027ab0    00000004     mmw_mss_per4ft.oer4ft (.const:xdc_runtime_Error_policy__C)
                  00027ab4    00000004     mmw_mss_per4ft.oer4ft (.const:xdc_runtime_Error_raiseHook__C)
                  00027ab8    00000004     mmw_mss_per4ft.oer4ft (.const:xdc_runtime_IFilterLogger_Interface__BASE__C)
                  00027abc    00000004     mmw_mss_per4ft.oer4ft (.const:xdc_runtime_IGateProvider_Interface__BASE__C)
                  00027ac0    00000004     mmw_mss_per4ft.oer4ft (.const:xdc_runtime_IHeap_Interface__BASE__C)
                  00027ac4    00000004     mmw_mss_per4ft.oer4ft (.const:xdc_runtime_ILogger_Interface__BASE__C)
                  00027ac8    00000004     mmw_mss_per4ft.oer4ft (.const:xdc_runtime_IModule_Interface__BASE__C)
                  00027acc    00000004     mmw_mss_per4ft.oer4ft (.const:xdc_runtime_Log_L_error__C)
                  00027ad0    00000004     mmw_mss_per4ft.oer4ft (.const:xdc_runtime_LoggerBuf_E_badLevel__C)
                  00027ad4    00000004     mmw_mss_per4ft.oer4ft (.const:xdc_runtime_LoggerBuf_Module__gateObj__C)
                  00027ad8    00000004     mmw_mss_per4ft.oer4ft (.const:xdc_runtime_LoggerBuf_Object__count__C)
                  00027adc    00000004     mmw_mss_per4ft.oer4ft (.const:xdc_runtime_LoggerBuf_statusLogger__C)
                  00027ae0    00000004     mmw_mss_per4ft.oer4ft (.const:xdc_runtime_Main_Module__diagsEnabled__C)
                  00027ae4    00000004     mmw_mss_per4ft.oer4ft (.const:xdc_runtime_Main_Module__diagsIncluded__C)
                  00027ae8    00000004     mmw_mss_per4ft.oer4ft (.const:xdc_runtime_Main_Module__diagsMask__C)
                  00027aec    00000004     mmw_mss_per4ft.oer4ft (.const:xdc_runtime_Main_Module__loggerFxn1__C)
                  00027af0    00000004     mmw_mss_per4ft.oer4ft (.const:xdc_runtime_Main_Module__loggerFxn2__C)
                  00027af4    00000004     mmw_mss_per4ft.oer4ft (.const:xdc_runtime_Main_Module__loggerFxn4__C)
                  00027af8    00000004     mmw_mss_per4ft.oer4ft (.const:xdc_runtime_Main_Module__loggerObj__C)
                  00027afc    00000004     mmw_mss_per4ft.oer4ft (.const:xdc_runtime_Memory_defaultHeapInstance__C)
                  00027b00    00000004     mmw_mss_per4ft.oer4ft (.const:xdc_runtime_Startup_execImpl__C)
                  00027b04    00000004     mmw_mss_per4ft.oer4ft (.const:xdc_runtime_Startup_maxPasses__C)
                  00027b08    00000004     mmw_mss_per4ft.oer4ft (.const:xdc_runtime_Startup_sfxnRts__C)
                  00027b0c    00000004     mmw_mss_per4ft.oer4ft (.const:xdc_runtime_Startup_sfxnTab__C)
                  00027b10    00000004     mmw_mss_per4ft.oer4ft (.const:xdc_runtime_System_Module__gateObj__C)
                  00027b14    00000004     mmw_mss_per4ft.oer4ft (.const:xdc_runtime_System_abortFxn__C)
                  00027b18    00000004     mmw_mss_per4ft.oer4ft (.const:xdc_runtime_System_exitFxn__C)
                  00027b1c    00000004     mmw_mss_per4ft.oer4ft (.const:xdc_runtime_System_extendFxn__C)
                  00027b20    00000004     mmw_mss_per4ft.oer4ft (.const:xdc_runtime_System_maxAtexitHandlers__C)
                  00027b24    00000004     mmw_mss_per4ft.oer4ft (.const:xdc_runtime_Text_charTab__C)
                  00027b28    00000004     mmw_mss_per4ft.oer4ft (.const:xdc_runtime_Text_nameEmpty__C)
                  00027b2c    00000004     mmw_mss_per4ft.oer4ft (.const:xdc_runtime_Text_nameStatic__C)
                  00027b30    00000004     mmw_mss_per4ft.oer4ft (.const:xdc_runtime_Text_nameUnknown__C)
                  00027b34    00000004     mmw_mss_per4ft.oer4ft (.const:xdc_runtime_Text_visitRopeFxn__C)
                  00027b38    00000002     mmw_mss_per4ft.oer4ft (.const:ti_sysbios_family_arm_v7r_tms570_Core_Module__id__C)
                  00027b3a    00000002     mmw_mss_per4ft.oer4ft (.const:ti_sysbios_family_arm_v7r_vim_Hwi_Module__id__C)
                  00027b3c    00000002     mmw_mss_per4ft.oer4ft (.const:ti_sysbios_family_arm_v7r_vim_Hwi_Module__loggerDefined__C)
                  00027b3e    00000002     mmw_mss_per4ft.oer4ft (.const:ti_sysbios_gates_GateMutex_Module__id__C)
                  00027b40    00000002     mmw_mss_per4ft.oer4ft (.const:ti_sysbios_hal_Hwi_Module__id__C)
                  00027b42    00000002     mmw_mss_per4ft.oer4ft (.const:ti_sysbios_heaps_HeapMem_Module__id__C)
                  00027b44    00000002     mmw_mss_per4ft.oer4ft (.const:ti_sysbios_knl_Clock_Module__id__C)
                  00027b46    00000002     mmw_mss_per4ft.oer4ft (.const:ti_sysbios_knl_Clock_Module__loggerDefined__C)
                  00027b48    00000002     mmw_mss_per4ft.oer4ft (.const:ti_sysbios_knl_Semaphore_Module__id__C)
                  00027b4a    00000002     mmw_mss_per4ft.oer4ft (.const:ti_sysbios_knl_Semaphore_Module__loggerDefined__C)
                  00027b4c    00000002     mmw_mss_per4ft.oer4ft (.const:ti_sysbios_knl_Task_Module__id__C)
                  00027b4e    00000002     mmw_mss_per4ft.oer4ft (.const:ti_sysbios_knl_Task_Module__loggerDefined__C)
                  00027b50    00000002     mmw_mss_per4ft.oer4ft (.const:ti_sysbios_timers_rti_Timer_Module__id__C)
                  00027b52    00000002     mmw_mss_per4ft.oer4ft (.const:ti_sysbios_timers_rti_Timer_continueOnSuspend__C)
                  00027b54    00000002     mmw_mss_per4ft.oer4ft (.const:ti_sysbios_utils_Load_Module__id__C)
                  00027b56    00000002     mmw_mss_per4ft.oer4ft (.const:ti_sysbios_utils_Load_Module__loggerDefined__C)
                  00027b58    00000002     mmw_mss_per4ft.oer4ft (.const:ti_sysbios_utils_Load_autoAddTasks__C)
                  00027b5a    00000002     mmw_mss_per4ft.oer4ft (.const:ti_sysbios_utils_Load_updateInIdle__C)
                  00027b5c    00000002     mmw_mss_per4ft.oer4ft (.const:xdc_runtime_Core_Module__id__C)
                  00027b5e    00000002     mmw_mss_per4ft.oer4ft (.const:xdc_runtime_Error_Module__loggerDefined__C)
                  00027b60    00000002     mmw_mss_per4ft.oer4ft (.const:xdc_runtime_Error_maxDepth__C)
                  00027b62    00000002     mmw_mss_per4ft.oer4ft (.const:xdc_runtime_LoggerBuf_Module__id__C)
                  00027b64    00000002     mmw_mss_per4ft.oer4ft (.const:xdc_runtime_LoggerBuf_filterByLevel__C)
                  00027b66    00000002     mmw_mss_per4ft.oer4ft (.const:xdc_runtime_Main_Module__id__C)
                  00027b68    00000002     mmw_mss_per4ft.oer4ft (.const:xdc_runtime_Main_Module__loggerDefined__C)
                  00027b6a    00000002     mmw_mss_per4ft.oer4ft (.const:xdc_runtime_Memory_Module__id__C)
                  00027b6c    00000002     mmw_mss_per4ft.oer4ft (.const:xdc_runtime_Text_charCnt__C)
                  00027b6e    00000002     mmw_mss_per4ft.oer4ft (.const:xdc_runtime_Text_isLoaded__C)
                  00027b70    00000002     mmw_mss_per4ft.oer4ft (.const:xdc_runtime_Text_registryModsLastId__C)
                  00027b72    00000002     mmw_mss_per4ft.oer4ft (.const:xdc_runtime_Text_unnamedModsLastId__C)

.cinit     0    00027b78    00000658     
                  00027b78    000005ef     (.cinit..data.load) [load image, compression = lzss]
                  00028167    00000001     --HOLE-- [fill = 0]
                  00028168    0000000c     (__TI_handler_table)
                  00028174    00000004     --HOLE-- [fill = 0]
                  00028178    00000008     (.cinit..bss.load) [load image, compression = zero_init]
                  00028180    00000008     (.cinit..dpcLocalRam.load) [load image, compression = zero_init]
                  00028188    00000008     (.cinit..l3ram.load) [load image, compression = zero_init]
                  00028190    00000008     (.cinit..myFiqStack.load) [load image, compression = zero_init]
                  00028198    00000008     (.cinit.systemHeap.load) [load image, compression = zero_init]
                  000281a0    00000030     (__TI_cinit_table)

.bss       0    0801b000    0000381c     UNINITIALIZED
                  0801b000    00001900     (.common:xdc_runtime_LoggerBuf_Instance_State_0_entryArr__A)
                  0801c900    00001000     (.common:ti_sysbios_family_arm_exc_Exception_Module_State_0_excStack_0__A)
                  0801d900    000004e8     libedma_xwr68xx.aer4f : edma.oer4f (.bss:$O1$$)
                  0801dde8    00000320     mmw_mss_per4ft.oer4ft (.bss:taskStackSection)
                  0801e108    000001a8     (.common:gCLI)
                  0801e2b0    00000194     (.common:gGPIOMCB)
                  0801e444    00000120     rtsv7R4_T_le_v3D16_eabi.lib : trgmsg.obj (.bss:_CIOBUF_)
                  0801e564    00000100     (.common:gMMWave_MCB)
                  0801e664    000000a0     (.common:__TI_tmpnams)
                  0801e704    00000004     (.common:gObjDetObj)
                  0801e708    00000090     (.common:gHSIHeaderMCB)
                  0801e798    00000070     (.common:gEsmMCB)
                  0801e808    00000008     (.common:gMMWave_DualcoreMCB)
                  0801e810    00000008     (.common:parmbuf)
                  0801e818    00000004     (.common:ti_sysbios_knl_Task_Instance_State_0_hookEnv__A)

.data      0    0801e820    000021d8     UNINITIALIZED
                  0801e820    00000bd0     mss_main.oer4f (.data:$O1$$)
                  0801f3f0    000003e8     libmmwavelink_xwr68xx.aer4f : rl_driver.oer4f (.data:$O1$$)
                  0801f7d8    00000368     libcli_xwr68xx.aer4f : cli_mmwave.oer4f (.data:$O1$$)
                  0801fb40    000002b8     libtrackerproc_xwr68xx.aer4f : trackerproc_3d.oer4f (.data:$O1$$)
                  0801fdf8    00000200     mmw_mss_per4ft.oer4ft (.data:ti_sysbios_family_arm_v7r_vim_Hwi_Module_State_0_dispatchTable__A)
                  0801fff8    000000f0     rtsv7R4_T_le_v3D16_eabi.lib : defs.obj (.data:_ftable)
                  080200e8    00000098     mmw_mss_per4ft.oer4ft (.data:ti_sysbios_utils_Load_Module__state__V)
                  08020180    00000080     mmw_mss_per4ft.oer4ft (.data:ti_sysbios_knl_Task_Module_State_0_readyQ__A)
                  08020200    00000078     rtsv7R4_T_le_v3D16_eabi.lib : write.obj (.data:_device)
                  08020278    00000078     libcbuff_xwr68xx.aer4f : cbuff_xwr68xx.oer4f (.data:gCBUFFHwAttribute)
                  080202f0    0000005c     mmw_mss_per4ft.oer4ft (.data:ti_sysbios_knl_Task_Object__table__V)
                  0802034c    00000058     libuart_xwr68xx.aer4f : uart_xwr68xx.oer4f (.data:gUartSciHwCfg)
                  080203a4    00000050     rtsv7R4_T_le_v3D16_eabi.lib : write.obj (.data:_stream)
                  080203f4    00000050     libmailbox_xwr68xx.aer4f : mailbox.oer4f (.data:gMailboxMCB)
                  08020444    00000048     mmw_mss_per4ft.oer4ft (.data:ti_sysbios_knl_Task_Module__state__V)
                  0802048c    00000040     libsoc_xwr68xx.aer4f : soc_xwr68xx.oer4f (.data:SOC_TranslateAddr_LUT)
                  080204cc    00000040     mmw_mss_per4ft.oer4ft (.data:ti_sysbios_gates_GateMutex_Object__table__V)
                  0802050c    0000003c     mmw_mss_per4ft.oer4ft (.data:ti_sysbios_timers_rti_Timer_Object__table__V)
                  08020548    00000038     libcbuff_xwr68xx.aer4f : cbuff_xwr68xx.oer4f (.data:gCBUFFInterfaceFxn)
                  08020580    00000034     mmw_mss_per4ft.oer4ft (.data:ti_sysbios_family_arm_v7r_vim_Hwi_Module__state__V)
                  080205b4    00000030     libhwa_xwr68xx.aer4f : hwa_xwr68xx.oer4f (.data:gHWAHwCfg)
                  080205e4    0000002c     mmw_mss_per4ft.oer4ft (.data:ti_sysbios_family_arm_v7r_vim_Hwi_Object__table__V)
                  08020610    0000002c     mmw_mss_per4ft.oer4ft (.data:ti_sysbios_knl_Clock_Module__state__V)
                  0802063c    00000028     libuart_xwr68xx.aer4f : uartsci.oer4f (.data:gUartSciFxnTable)
                  08020664    00000024                           : uart_xwr68xx.oer4f (.data:UART_config)
                  08020688    00000024     objdetrangehwa.oer4f (.data:gDPC_ObjDetRangeHWACfg)
                  080206ac    00000024     mmw_mss_per4ft.oer4ft (.data:ti_sysbios_BIOS_Module__state__V)
                  080206d0    00000024     mmw_mss_per4ft.oer4ft (.data:xdc_runtime_LoggerBuf_Object__table__V)
                  080206f4    00000004     libhwa_xwr68xx.aer4f : hwa_xwr68xx.oer4f (.data:gHWADriverPtr)
                  080206f8    00000020     libsoc_xwr68xx.aer4f : soc_xwr68xx_mss.oer4f (.data:gSOCHwAttrib)
                  08020718    00000020     mmw_mss_per4ft.oer4ft (.data:ti_sysbios_knl_Clock_Object__table__V)
                  08020738    00000020     mmw_mss_per4ft.oer4ft (.data:xdc_runtime_Error_IgnoreBlock)
                  08020758    00000020     mmw_mss_per4ft.oer4ft (.data:xdc_runtime_System_Module_State_0_atexitHandlers__A)
                  08020778    0000001c     mmw_mss_per4ft.oer4ft (.data:ti_sysbios_utils_Load_Module_State_0_taskEnv__A)
                  08020794    00000018     libadcbuf_xwr68xx.aer4f : adcbuf_xwr1xxx.oer4f (.data:ADCBuf_config)
                  080207ac    00000018     libcbuff_xwr68xx.aer4f : cbuff_xwr68xx.oer4f (.data:gInterleavedTransferFxn)
                  080207c4    00000018     libmailbox_xwr68xx.aer4f : mailbox_xwr68xx.oer4f (.data:gMailboxMssBssHwCfg)
                  080207dc    00000018                              : mailbox_xwr68xx.oer4f (.data:gMailboxMssDssHwCfg)
                  080207f4    00000018     libcbuff_xwr68xx.aer4f : cbuff_xwr68xx.oer4f (.data:gMultipleChirpNonInterleavedTransferFxn)
                  0802080c    00000018                            : cbuff_xwr68xx.oer4f (.data:gNonInterleavedTransferFxn)
                  08020824    00000018     mmw_mss_per4ft.oer4ft (.data:ti_sysbios_heaps_HeapMem_Object__table__V)
                  0802083c    00000018     mmw_mss_per4ft.oer4ft (.data:ti_sysbios_timers_rti_Timer_Module_State_0_device__A)
                  08020854    00000014     libdpm_xwr68xx.aer4f : dpm_mailbox.oer4f (.data:gDPMRemoteTable)
                  08020868    00000014     mmw_mss_per4ft.oer4ft (.data:ti_sysbios_family_arm_exc_Exception_Module__state__V)
                  0802087c    00000010     libhwa_xwr68xx.aer4f : hwa.oer4f (.data:gHwaEDMAChanMapping)
                  0802088c    00000010     libqspi_xwr68xx.aer4f : qspi_xwr68xx.oer4f (.data:gQSPIHwCfg)
                  0802089c    00000010     rtsv7R4_T_le_v3D16_eabi.lib : defs.obj (.data)
                  080208ac    00000010     mmw_mss_per4ft.oer4ft (.data:ti_sysbios_timers_rti_Timer_Module_State_0_intFreqs__A)
                  080208bc    00000010     mmw_mss_per4ft.oer4ft (.data:ti_sysbios_timers_rti_Timer_Module__state__V)
                  080208cc    0000000c     rtsv7R4_T_le_v3D16_eabi.lib : exit.obj (.data:$O1$$)
                  080208d8    0000000c     libesm_xwr68xx.aer4f : esm_xwr1xxx.oer4f (.data:gESMHwCfgAttrs)
                  080208e4    0000000c     mmw_mss_per4ft.oer4ft (.data:ti_sysbios_family_arm_v7a_Pmu_Module__state__V)
                  080208f0    0000000c     mmw_mss_per4ft.oer4ft (.data:ti_sysbios_knl_Task_Module__root__V)
                  080208fc    00000008     rtsv7R4_T_le_v3D16_eabi.lib : _lock.obj (.data:$O1$$)
                  08020904    00000008     mmwdemo_rfparser.oer4f (.data:MmwDemo_RFParserHwCfg)
                  0802090c    00000008     libqspiflash_xwr68xx.aer4f : qspiflash_device_macronix.oer4f (.data:QSPIFlash_deviceFxnTbl_macronix)
                  08020914    00000008                                : qspiflash_device_spansion.oer4f (.data:QSPIFlash_deviceFxnTbl_spansion)
                  0802091c    00000008     libdpm_xwr68xx.aer4f : dpm_xwr68xx.oer4f (.data:gDPMHwAttrib)
                  08020924    00000008     libgpio_xwr68xx.aer4f : gpio_xwr68xx.oer4f (.data:gGPIOHwAtrrib)
                  0802092c    00000008     mmw_mss_per4ft.oer4ft (.data:ti_sysbios_family_arm_v7r_vim_Hwi_Module__root__V)
                  08020934    00000008     mmw_mss_per4ft.oer4ft (.data:ti_sysbios_gates_GateHwi_Module__root__V)
                  0802093c    00000008     mmw_mss_per4ft.oer4ft (.data:ti_sysbios_gates_GateMutex_Module__root__V)
                  08020944    00000008     mmw_mss_per4ft.oer4ft (.data:ti_sysbios_hal_Hwi_Object__table__V)
                  0802094c    00000008     mmw_mss_per4ft.oer4ft (.data:ti_sysbios_heaps_HeapMem_Module__root__V)
                  08020954    00000008     mmw_mss_per4ft.oer4ft (.data:ti_sysbios_knl_Queue_Module__root__V)
                  0802095c    00000008     mmw_mss_per4ft.oer4ft (.data:ti_sysbios_knl_Semaphore_Module__root__V)
                  08020964    00000008     mmw_mss_per4ft.oer4ft (.data:ti_sysbios_timers_rti_Timer_Module_State_0_handles__A)
                  0802096c    00000008     mmw_mss_per4ft.oer4ft (.data:xdc_runtime_LoggerBuf_Module__root__V)
                  08020974    00000008     mmw_mss_per4ft.oer4ft (.data:xdc_runtime_Registry_Module__state__V)
                  0802097c    00000008     mmw_mss_per4ft.oer4ft (.data:xdc_runtime_Startup_Module__state__V)
                  08020984    00000008     mmw_mss_per4ft.oer4ft (.data:xdc_runtime_System_Module__state__V)
                  0802098c    00000006     mmw_mss_per4ft.oer4ft (.data:xdc_runtime_LoggerBuf_Module__state__V)
                  08020992    00000002     mmw_mss_per4ft.oer4ft (.data:ti_sysbios_family_arm_exc_Exception_Module_State_0_excActive__A)
                  08020994    00000004     libqspiflash_xwr68xx.aer4f : qspiflash_xwr68xx.oer4f (.data:gQSPIFlashHwCfg)
                  08020998    00000004     libadcbuf_xwr68xx.aer4f : ADCBuf.oer4f (.data)
                  0802099c    00000004     libcrc_xwr68xx.aer4f : crc_xwr68xx.oer4f (.data)
                  080209a0    00000004     libdpm_xwr68xx.aer4f : dpm_mailbox.oer4f (.data)
                  080209a4    00000004     libedma_xwr68xx.aer4f : edma_low_level.oer4f (.data)
                  080209a8    00000004     libpinmux_xwr68xx.aer4f : pinmux_xwr1xxx.oer4f (.data)
                  080209ac    00000004     libqspi_xwr68xx.aer4f : qspi.oer4f (.data)
                  080209b0    00000004     libuart_xwr68xx.aer4f : UART.oer4f (.data)
                  080209b4    00000004     rtsv7R4_T_le_v3D16_eabi.lib : errno.obj (.data)
                  080209b8    00000004                                 : fopen.obj (.data)
                  080209bc    00000004                                 : open.obj (.data)
                  080209c0    00000004                                 : stkdepth_vars.obj (.data)
                  080209c4    00000004                                 : strtok.obj (.data)
                  080209c8    00000004     mmw_mss_per4ft.oer4ft (.data:ti_sysbios_family_arm_a15_TimestampProvider_Module__state__V)
                  080209cc    00000004     mmw_mss_per4ft.oer4ft (.data:ti_sysbios_family_arm_exc_Exception_Module_State_0_excContext__A)
                  080209d0    00000004     mmw_mss_per4ft.oer4ft (.data:ti_sysbios_family_arm_exc_Exception_Module_State_0_excStackBuffers__A)
                  080209d4    00000004     mmw_mss_per4ft.oer4ft (.data:ti_sysbios_family_arm_exc_Exception_Module_State_0_excStack__A)
                  080209d8    00000004     mmw_mss_per4ft.oer4ft (.data:ti_sysbios_gates_GateHwi_Object__table__V)
                  080209dc    00000004     mmw_mss_per4ft.oer4ft (.data:ti_sysbios_heaps_HeapBuf_Module__state__V)
                  080209e0    00000004     mmw_mss_per4ft.oer4ft (.data:ti_sysbios_knl_Task_Module_State_0_idleTask__A)
                  080209e4    00000004     mmw_mss_per4ft.oer4ft (.data:ti_sysbios_utils_Load_Module_State_0_runningTask__A)
                  080209e8    00000004     mmw_mss_per4ft.oer4ft (.data:ti_sysbios_utils_Load_Module_State_0_taskStartTime__A)
                  080209ec    00000004     tracker_utils.oer4f (.data)
                  080209f0    00000004     mmw_mss_per4ft.oer4ft (.data:xdc_runtime_Memory_Module__state__V)
                  080209f4    00000002     mmw_mss_per4ft.oer4ft (.data:xdc_runtime_Error_Module__state__V)
                  080209f6    00000002     mmw_mss_per4ft.oer4ft (.data:xdc_runtime_Main_Module__root__V)

.myFiqStack 
*          0    080219f8    00000800     UNINITIALIZED
                  080219f8    00000800     mmw_mss_per4ft.oer4ft (.myFiqStack)

.stack     0    080221f8    00000800     UNINITIALIZED
                  080221f8    00000800     --HOLE--

xdc.meta   0    00000000    000000ee     COPY SECTION
                  00000000    000000ee     mmw_mss_per4ft.oer4ft (xdc.meta)

xdc.noload 
*          0    00000000    00000000     COPY SECTION

.l3ram     0    51000000    000bff00     UNINITIALIZED
                  51000000    000bff00     mss_main.oer4f (.l3ram)

MODULE SUMMARY

       Module                            code     ro data   rw data
       ------                            ----     -------   -------
    .\
       objdetrangehwa.oer4f              3081     0         40     
    +--+---------------------------------+--------+---------+---------+
       Total:                            3081     0         40     
                                                                   
    .\mss\
       mss_main.oer4f                    15718    0         793296 
       mmw_cli.oer4f                     7181     766       0      
       mmw_lvds_stream.oer4f             3920     0         0      
       mmwdemo_rfparser.oer4f            1640     0         8      
       mmwdemo_adcconfig.oer4f           216      0         0      
       mmwdemo_monitor.oer4f             130      0         0      
    +--+---------------------------------+--------+---------+---------+
       Total:                            28805    766       793304 
                                                                   
    .\utils\
       tracker_utils.oer4f               1382     0         4      
    +--+---------------------------------+--------+---------+---------+
       Total:                            1382     0         4      
                                                                   
    C:\Users\User\workspace_v11\area_scanner_68xx_mss\isk\configPkg\package\cfg\
       mmw_mss_per4ft.oer4ft             1872     1913      125628 
    +--+---------------------------------+--------+---------+---------+
       Total:                            1872     1913      125628 
                                                                   
    C:/ti/mmwave_industrial_toolbox_4_9_0/labs/common/src/alg/gtrack/lib/libgtrack3D.aer4f
       gtrack_math.oer4f                 1646     2896      0      
       gtrack_unit_update.oer4f          4257     0         0      
       gtrack_create.oer4f               1304     1112      0      
       gtrack_utilities_3d.oer4f         1954     68        0      
       gtrack_utilities.oer4f            1138     0         0      
       gtrack_module.oer4f               940      0         0      
       gtrack_step.oer4f                 508      0         0      
       gtrack_unit_predict.oer4f         506      0         0      
       gtrack_unit_score.oer4f           469      0         0      
       gtrack_unit_start.oer4f           428      0         0      
       gtrack_unit_event.oer4f           411      0         0      
       gtrack_unit_create.oer4f          224      0         0      
       gtrack_listlib.oer4f              210      0         0      
       gtrack_delete.oer4f               168      0         0      
       gtrack_unit_stop.oer4f            156      0         0      
       gtrack_unit_report.oer4f          76       0         0      
       gtrack_unit_get.oer4f             14       0         0      
       gtrack_unit_delete.oer4f          8        0         0      
    +--+---------------------------------+--------+---------+---------+
       Total:                            14417    4076      0      
                                                                   
    C:/ti/mmwave_industrial_toolbox_4_9_0/labs/common/src/dpu/trackerproc/lib/libtrackerproc_xwr68xx.aer4f
       trackerproc_3d.oer4f              924      0         696    
    +--+---------------------------------+--------+---------+---------+
       Total:                            924      0         696    
                                                                   
    C:/ti/mmwave_sdk_03_05_00_04/packages/ti/control/dpm/lib/libdpm_xwr68xx.aer4f
       dpm_core.oer4f                    1264     0         0      
       dpm_msg.oer4f                     1134     40        0      
       dpm_mailbox.oer4f                 362      0         24     
       dpm_pipe.oer4f                    312      0         0      
       dpm_listlib.oer4f                 86       0         0      
       dpm_xwr68xx.oer4f                 0        0         8      
    +--+---------------------------------+--------+---------+---------+
       Total:                            3158     40        32     
                                                                   
    C:/ti/mmwave_sdk_03_05_00_04/packages/ti/control/mmwave/lib/libmmwave_xwr68xx.aer4f
       mmwave_link.oer4f                 2612     0         0      
       mmwave_dualcore.oer4f             2108     0         8      
       mmwave_fullcfg.oer4f              2002     0         0      
       mmwave.oer4f                      1016     0         256    
       mmwave_osal.oer4f                 200      0         0      
       mmwave_listlib.oer4f              142      0         0      
    +--+---------------------------------+--------+---------+---------+
       Total:                            8080     0         264    
                                                                   
    C:/ti/mmwave_sdk_03_05_00_04/packages/ti/control/mmwavelink/lib/libmmwavelink_xwr68xx.aer4f
       rl_driver.oer4f                   4458     136       1000   
       rl_sensor.oer4f                   1992     696       0      
       rl_device.oer4f                   460      0         0      
       rl_controller.oer4f               152      0         0      
       rl_monitoring.oer4f               114      0         0      
    +--+---------------------------------+--------+---------+---------+
       Total:                            7176     832       1000   
                                                                   
    C:/ti/mmwave_sdk_03_05_00_04/packages/ti/datapath/dpedma/lib/libdpedma_hwa_xwr68xx.aer4f
       dpedma.oer4f                      610      0         0      
       dpedmahwa.oer4f                   234      0         0      
    +--+---------------------------------+--------+---------+---------+
       Total:                            844      0         0      
                                                                   
    C:/ti/mmwave_sdk_03_05_00_04/packages/ti/datapath/dpu/rangeproc/lib/librangeproc_hwa_xwr68xx.aer4f
       rangeprochwa.oer4f                4982     0         0      
    +--+---------------------------------+--------+---------+---------+
       Total:                            4982     0         0      
                                                                   
    C:/ti/mmwave_sdk_03_05_00_04/packages/ti/drivers/adcbuf/lib/libadcbuf_xwr68xx.aer4f
       adcbuf_mmwave.oer4f               1972     20        0      
       ADCBuf.oer4f                      136      16        4      
       adcbuf_xwr1xxx.oer4f              0        16        24     
    +--+---------------------------------+--------+---------+---------+
       Total:                            2108     52        28     
                                                                   
    C:/ti/mmwave_sdk_03_05_00_04/packages/ti/drivers/cbuff/lib/libcbuff_xwr68xx.aer4f
       cbuff.oer4f                       2954     0         0      
       cbuff_transfer.oer4f              1542     0         0      
       cbuff_lvds.oer4f                  1329     0         0      
       cbuff_edma.oer4f                  731      0         0      
       cbuff_xwr68xx.oer4f               0        0         248    
    +--+---------------------------------+--------+---------+---------+
       Total:                            6556     0         248    
                                                                   
    C:/ti/mmwave_sdk_03_05_00_04/packages/ti/drivers/crc/lib/libcrc_xwr68xx.aer4f
       crc.oer4f                         1256     0         0      
       crc_xwr68xx.oer4f                 0        0         4      
    +--+---------------------------------+--------+---------+---------+
       Total:                            1256     0         4      
                                                                   
    C:/ti/mmwave_sdk_03_05_00_04/packages/ti/drivers/dma/lib/libdma_xwr68xx.aer4f
       dma.oer4f                         1978     0         0      
    +--+---------------------------------+--------+---------+---------+
       Total:                            1978     0         0      
                                                                   
    C:/ti/mmwave_sdk_03_05_00_04/packages/ti/drivers/edma/lib/libedma_xwr68xx.aer4f
       edma.oer4f                        3050     16        1256   
       edma_low_level.oer4f              846      0         4      
       edma_xwr1xxx.oer4f                0        56        0      
    +--+---------------------------------+--------+---------+---------+
       Total:                            3896     72        1260   
                                                                   
    C:/ti/mmwave_sdk_03_05_00_04/packages/ti/drivers/esm/lib/libesm_xwr68xx.aer4f
       esm.oer4f                         456      0         112    
       esm_xwr1xxx.oer4f                 0        0         12     
    +--+---------------------------------+--------+---------+---------+
       Total:                            456      0         124    
                                                                   
    C:/ti/mmwave_sdk_03_05_00_04/packages/ti/drivers/gpio/lib/libgpio_xwr68xx.aer4f
       gpio.oer4f                        886      0         404    
       gpio_xwr68xx.oer4f                0        0         8      
    +--+---------------------------------+--------+---------+---------+
       Total:                            886      0         412    
                                                                   
    C:/ti/mmwave_sdk_03_05_00_04/packages/ti/drivers/hwa/lib/libhwa_xwr68xx.aer4f
       hwa.oer4f                         4236     96        16     
       hwa_xwr68xx.oer4f                 0        0         52     
    +--+---------------------------------+--------+---------+---------+
       Total:                            4236     96        68     
                                                                   
    C:/ti/mmwave_sdk_03_05_00_04/packages/ti/drivers/mailbox/lib/libmailbox_xwr68xx.aer4f
       mailbox.oer4f                     1916     36        80     
       mailbox_xwr68xx.oer4f             0        0         48     
    +--+---------------------------------+--------+---------+---------+
       Total:                            1916     36        128    
                                                                   
    C:/ti/mmwave_sdk_03_05_00_04/packages/ti/drivers/osal/lib/libosal_xwr68xx.aer4f
       DebugP_tirtos.oer4f               388      0         0      
       HwiP_tirtos.oer4f                 226      0         0      
       SemaphoreP_tirtos.oer4f           150      0         0      
       MemoryP_tirtos.oer4f              36       0         0      
       CycleprofilerP_tirtos.oer4f       26       0         0      
    +--+---------------------------------+--------+---------+---------+
       Total:                            826      0         0      
                                                                   
    C:/ti/mmwave_sdk_03_05_00_04/packages/ti/drivers/pinmux/lib/libpinmux_xwr68xx.aer4f
       pinmux.oer4f                      390      0         0      
       pinmux_xwr1xxx.oer4f              0        0         4      
    +--+---------------------------------+--------+---------+---------+
       Total:                            390      0         4      
                                                                   
    C:/ti/mmwave_sdk_03_05_00_04/packages/ti/drivers/qspi/lib/libqspi_xwr68xx.aer4f
       qspi.oer4f                        660      16        4      
       qspi_xwr68xx.oer4f                0        0         16     
    +--+---------------------------------+--------+---------+---------+
       Total:                            660      16        20     
                                                                   
    C:/ti/mmwave_sdk_03_05_00_04/packages/ti/drivers/qspiflash/lib/libqspiflash_xwr68xx.aer4f
       qspiflash.oer4f                   956      0         0      
       qspiflash_device_macronix.oer4f   236      0         8      
       qspiflash_device_spansion.oer4f   220      0         8      
       qspiflash_xwr68xx.oer4f           0        0         4      
    +--+---------------------------------+--------+---------+---------+
       Total:                            1412     0         20     
                                                                   
    C:/ti/mmwave_sdk_03_05_00_04/packages/ti/drivers/soc/lib/libsoc_xwr68xx.aer4f
       soc_xwr68xx_mss.oer4f             1546     0         32     
       soc_xwr68xx.oer4f                 894      0         64     
       soc.oer4f                         928      0         0      
       soc_mpu.o                         182      0         0      
    +--+---------------------------------+--------+---------+---------+
       Total:                            3550     0         96     
                                                                   
    C:/ti/mmwave_sdk_03_05_00_04/packages/ti/drivers/uart/lib/libuart_xwr68xx.aer4f
       uartsci.oer4f                     2192     0         40     
       uartsci_dma.oer4f                 642      0         0      
       UART.oer4f                        150      60        4      
       uart_xwr68xx.oer4f                0        0         124    
    +--+---------------------------------+--------+---------+---------+
       Total:                            2984     60        168    
                                                                   
    C:/ti/mmwave_sdk_03_05_00_04/packages/ti/utils/cli/lib/libcli_xwr68xx.aer4f
       cli_mmwave.oer4f                  4652     192       872    
       cli.oer4f                         820      4         424    
    +--+---------------------------------+--------+---------+---------+
       Total:                            5472     196       1296   
                                                                   
    C:/ti/mmwave_sdk_03_05_00_04/packages/ti/utils/hsiheader/lib/libhsiheader_xwr68xx.aer4f
       hsiheader.oer4f                   1176     0         144    
    +--+---------------------------------+--------+---------+---------+
       Total:                            1176     0         144    
                                                                   
    C:/ti/mmwave_sdk_03_05_00_04/packages/ti/utils/mathutils/lib/libmathutils.aer4f
       mathutils.oer4f                   344      0         0      
    +--+---------------------------------+--------+---------+---------+
       Total:                            344      0         0      
                                                                   
    C:/ti/ti-cgt-arm_16.9.6.LTS/lib/rtsv7R4_T_le_v3D16_eabi.lib
       _printfi.obj                      4218     0         0      
       k_rem_pio2.obj                    1532     344       0      
       e_powf.obj                        1424     24        0      
       s_cos.obj                         1012     0         0      
       s_tanf.obj                        788      48        0      
       ull_div32.obj                     696      0         0      
       strtod.obj                        484      152       0      
       e_logf.obj                        484      0         0      
       fopen.obj                         456      0         4      
       defs.obj                          0        0         416    
       trgmsg.obj                        108      0         288    
       s_atanf.obj                       340      52        0      
       ctype.obj                         0        257       0      
       write.obj                         40       0         200    
       s_scalbn.obj                      236      0         0      
       s_floor.obj                       224      0         0      
       setvbuf.obj                       220      0         0      
       s_scalbnf.obj                     212      0         0      
       fflush.obj                        204      0         0      
       open.obj                          188      0         4      
       k_cos.obj                         184      0         0      
       _io_perm.obj                      174      0         0      
       k_sin.obj                         164      0         0      
       memcpy_t2.obj                     156      0         0      
       fclose.obj                        152      0         0      
       fputc.obj                         152      0         0      
       vsnprintf.obj                     136      0         0      
       memset_t2.obj                     122      0         0      
       getdevice.obj                     116      0         0      
       s_frexp.obj                       116      0         0      
       copy_decompress_lzss.obj          108      0         0      
       hostlseek.obj                     104      0         0      
       hostrename.obj                    104      0         0      
       fseek.obj                         100      0         0      
       hostopen.obj                      92       0         8      
       sprintf.obj                       100      0         0      
       exit.obj                          80       0         12     
       hostread.obj                      92       0         0      
       close.obj                         88       0         0      
       hostwrite.obj                     88       0         0      
       ltoa.obj                          84       0         0      
       atoi.obj                          80       0         0      
       u_div32.obj                       80       0         0      
       cpy_tbl.obj                       76       0         0      
       hostclose.obj                     68       0         0      
       hostunlink.obj                    68       0         0      
       strtok.obj                        64       0         4      
       strncpy.obj                       54       0         0      
       ull_tofs_t2.obj                   54       0         0      
       unlink.obj                        44       0         0      
       strspn.obj                        42       0         0      
       e_sqrtf.obj                       40       0         0      
       lseek.obj                         40       0         0      
       memcmp.obj                        38       0         0      
       strcspn.obj                       34       0         0      
       _lock.obj                         20       0         8      
       memccpy.obj                       28       0         0      
       s_copysign.obj                    26       0         0      
       args_main.obj                     24       0         0      
       strcmp.obj                        24       0         0      
       strchr.obj                        22       0         0      
       strlen.obj                        22       0         0      
       strcpy.obj                        20       0         0      
       s_copysignf.obj                   18       0         0      
       copy_decompress_none.obj          14       0         0      
       copy_zero_init.obj                12       0         0      
       errno.obj                         0        0         4      
       stkdepth_vars.obj                 0        0         4      
       i_div0.obj                        2        0         0      
    +--+---------------------------------+--------+---------+---------+
       Total:                            16392    877       952    
                                                                   
    C:\ti\bios_6_73_01_01\packages\ti\targets\arm\rtsarm\lib\auto_init.aer4ft
       auto_init.oer4ft                  160      0         0      
    +--+---------------------------------+--------+---------+---------+
       Total:                            160      0         0      
                                                                   
    C:\ti\bios_6_73_01_01\packages\ti\targets\arm\rtsarm\lib\boot.aer4ft
       boot.oer4ft                       116      0         0      
    +--+---------------------------------+--------+---------+---------+
       Total:                            116      0         0      
                                                                   
    C:\ti\mmwave_industrial_toolbox_4_9_0\labs\area_scanner\68xx_area_scanner\src\mss\src\sysbios\sysbios.aer4ft
       BIOS.obj                          20737    0         0      
       exc_Exception_asm.obj             308      0         0      
       vim_Hwi_asm.obj                   208      0         0      
       arm_TaskSupport_asm.obj           180      0         0      
       vim_Hwi_asm_switch.obj            152      0         0      
       a15_TimestampProvider_asm.obj     46       0         0      
       arm_IntrinsicsSupport_asm.obj     12       0         0      
       tms570_Core_asm.obj               10       0         0      
    +--+---------------------------------+--------+---------+---------+
       Total:                            21653    0         0      
                                                                   
       Stack:                            0        0         2048   
       Linker Generated:                 0        1619      0      
    +--+---------------------------------+--------+---------+---------+
       Grand Total:                      153144   10651     927988 


LINKER GENERATED COPY TABLES

__TI_cinit_table @ 000281a0 records: 6, size/record: 8, table size: 48
	.data: load addr=00027b78, load size=000005ef bytes, run addr=0801e820, run size=000021d8 bytes, compression=lzss
	.bss: load addr=00028178, load size=00000008 bytes, run addr=0801b000, run size=0000381c bytes, compression=zero_init
	.dpcLocalRam: load addr=00028180, load size=00000008 bytes, run addr=080209f8, run size=00001000 bytes, compression=zero_init
	.l3ram: load addr=00028188, load size=00000008 bytes, run addr=51000000, run size=000bff00 bytes, compression=zero_init
	.myFiqStack: load addr=00028190, load size=00000008 bytes, run addr=080219f8, run size=00000800 bytes, compression=zero_init
	systemHeap: load addr=00028198, load size=00000008 bytes, run addr=08000000, run size=0001b000 bytes, compression=zero_init


LINKER GENERATED HANDLER TABLE

__TI_handler_table @ 00028168 records: 3, size/record: 4, table size: 12
	index: 0, handler: __TI_zero_init
	index: 1, handler: __TI_decompress_lzss
	index: 2, handler: __TI_decompress_none


GLOBAL SYMBOLS: SORTED ALPHABETICALLY BY Name 

address   name                                                                 
-------   ----                                                                 
00022275  ADCBUF_MMWave_close                                                  
00006375  ADCBUF_MMWave_control                                                
0001eedd  ADCBUF_MMWave_getCQBufAddr                                           
0001ae59  ADCBUF_MMWave_getChanBufAddr                                         
0000117b  ADCBUF_MMWave_init                                                   
00013f3d  ADCBUF_MMWave_open                                                   
00025535  ADCBuf_Params_init                                                   
08020794  ADCBuf_config                                                        
00020565  ADCBuf_control                                                       
000277ec  ADCBuf_defaultParams                                                 
000205d5  ADCBuf_getChanBufAddr                                                
00023685  ADCBuf_init                                                          
00023301  ADCBuf_open                                                          
00021a69  C$$EXIT                                                              
0001fc5b  C$$IO$$                                                              
0001076d  CBUFF_activateSession                                                
0001de6d  CBUFF_closeEDMA                                                      
000225d5  CBUFF_closeLVDS                                                      
0000f095  CBUFF_configEDMA                                                     
0000945d  CBUFF_createSession                                                  
0001a359  CBUFF_deactivateSession                                              
00015d25  CBUFF_deinit                                                         
00020645  CBUFF_deinitLVDS                                                     
00016745  CBUFF_deleteSession                                                  
00024d8d  CBUFF_finalizeLVDSLinkListParams                                     
0000b9cd  CBUFF_init                                                           
0000f7dd  CBUFF_initLVDS                                                       
0001e891  CBUFF_initLVDSLinkListParams                                         
0000ca55  CBUFF_openLVDS                                                       
0001efcd  CBUFF_setVC                                                          
0001cc6b  CBUFF_setupNonInterleaved_ADC                                        
000190e5  CBUFF_setupNonInterleaved_CP_ADC_CQ                                  
00019c25  CBUFF_setupTransfer                                                  
0002207b  CBUFF_setup_USER                                                     
00025201  CBUFF_shutdownTransfer                                               
00020789  CLI_MMWaveExtensionHandler                                           
0001af01  CLI_MMWaveExtensionHelp                                              
00023145  CLI_MMWaveExtensionInit                                              
00025545  CLI_getMMWaveExtensionConfig                                         
00024f45  CLI_getMMWaveExtensionOpenConfig                                     
00017769  CLI_open                                                             
00021b61  CLI_write                                                            
00016841  CRC_computeSignature                                                 
00021749  CRC_getSignature                                                     
000212f9  CRC_getTransactionId                                                 
0002544d  CRC_initConfigParams                                                 
0000db35  CRC_open                                                             
0001a12b  CycleprofilerP_getTimeStamp                                          
000252a7  CycleprofilerP_init                                                  
0001b789  DMA_assignChannel                                                    
00016445  DMA_clearChannelInterruptFlag                                        
0001f7f1  DMA_disableChannel                                                   
00015a0d  DMA_disableInterrupt                                                 
0001f85d  DMA_enableChannel                                                    
00017849  DMA_enableInterrupt                                                  
0002134d  DMA_freeChannel                                                      
00019cdd  DMA_getChannelInterruptFlag                                          
0000e539  DMA_setChannelParams                                                 
000173cd  DPEDMAHWA_configTwoHotSignature                                      
000153b9  DPEDMA_configSyncAB                                                  
00015e29  DPEDMA_configSyncA_singleFrame                                       
000216a5  DPEDMA_setup_shadow_link                                             
000191a9  DPM_deinit                                                           
00020dd1  DPM_execute                                                          
00011d85  DPM_init                                                             
0001926d  DPM_ioctl                                                            
00024dc1  DPM_listAdd                                                          
00024743  DPM_listCat                                                          
00024b95  DPM_listRemove                                                       
00023e85  DPM_msgInitHeader                                                    
00011f05  DPM_msgRecv                                                          
000231b5  DPM_notifyExecute                                                    
00023ce7  DPM_pipeDeinit                                                       
00023a1d  DPM_pipeInit                                                         
000220c3  DPM_pipeRecv                                                         
0001e911  DPM_pipeSend                                                         
0001f8c9  DPM_relayResult                                                      
000222fd  DPM_start                                                            
00022341  DPM_stop                                                             
00021799  DPM_synch                                                            
000070d1  DPU_RangeProcHWA_config                                              
00018359  DPU_RangeProcHWA_control                                             
00023ead  DPU_RangeProcHWA_deinit                                              
000193f5  DPU_RangeProcHWA_init                                                
00004eb9  DPU_RangeProcHWA_process                                             
00011a7d  DPU_TrackerProc_config                                               
00023a49  DPU_TrackerProc_init                                                 
0001145d  DPU_TrackerProc_process                                              
000202a9  DPU_trackerProc_updateParamTables                                    
00020e81  DebugP_log0                                                          
00020ed9  DebugP_log1                                                          
000207e9  DebugP_log2                                                          
00020849  DebugP_log3                                                          
00009755  EDMA3ChannelToParamMap                                               
00021ea9  EDMA3ClrCCErr                                                        
00024375  EDMA3ClrEvt                                                          
00024399  EDMA3ClrIntr                                                         
000231ed  EDMA3ClrMissEvt                                                      
000243bd  EDMA3DisableDmaEvt                                                   
000243e1  EDMA3DisableEvtIntr                                                  
00024f8d  EDMA3DisableQdmaEvt                                                  
00020f31  EDMA3EnableChInShadowReg                                             
00024405  EDMA3EnableDmaEvt                                                    
00024429  EDMA3EnableEvtIntr                                                   
00024fa5  EDMA3EnableQdmaEvt                                                   
0002202b  EDMA3ErrIntrHighStatusGet                                            
00023509  EDMA3GetCCErrStatus                                                  
00024019  EDMA3GetErrIntrStatus                                                
000252bd  EDMA3GetIntrStatus                                                   
0001afa9  EDMA3Init                                                            
000252d1  EDMA3IntrStatusHighGet                                               
000217e9  EDMA3MapChToEvtQ                                                     
000252e5  EDMA3MapQdmaChToPaRAM                                                
00024765  EDMA3QdmaClrMissEvt                                                  
00024049  EDMA3QdmaGetErrIntrStatus                                            
00024e29  EDMA3SetPaRAM                                                        
0002545f  EDMA3SetQdmaTrigWord                                                 
00022eb5  EDMA_chainChannels                                                   
000115e5  EDMA_configChannel                                                   
00014f71  EDMA_configErrorMonitoring                                           
0001f0bd  EDMA_configParamSet                                                  
00021bad  EDMA_disableChannel                                                  
00021bf9  EDMA_enableChannel                                                   
000149d1  EDMA_init                                                            
00022761  EDMA_linkParamSets                                                   
0000fef9  EDMA_open                                                            
00009a55  EDMAsetRegion                                                        
00020f89  ESM_highpriority_FIQ                                                 
0001b82d  ESM_init                                                             
00024785  ESM_lowpriority_IRQ                                                  
0001aaed  ESM_processInterrupt                                                 
0001d235  GPIO_init                                                            
00012381  GPIO_setConfig                                                       
0001987d  GPIO_write                                                           
0002240d  HOSTclose                                                            
000200a9  HOSTlseek                                                            
00020bfd  HOSTopen                                                             
00020c59  HOSTread                                                             
00020111  HOSTrename                                                           
00022451  HOSTunlink                                                           
00021249  HOSTwrite                                                            
0000b259  HSIHeader_createHeader                                               
0001f5c1  HSIHeader_deleteHeader                                               
00013519  HSIHeader_init                                                       
00009ff5  HWA_configCommon                                                     
00003701  HWA_configParamSet                                                   
0001cb3f  HWA_configRam                                                        
00023369  HWA_disableDoneInterrupt                                             
0001dc4d  HWA_disableParamSetInterrupt                                         
00022d45  HWA_enable                                                           
00021c45  HWA_enableDoneInterrupt                                              
00018771  HWA_enableParamSetInterrupt                                          
00020371  HWA_getDMAChanIndex                                                  
00020fe1  HWA_getDMAconfig                                                     
000227a1  HWA_getHWAMemInfo                                                    
0000307f  HWA_init                                                             
0001176d  HWA_open                                                             
00022659  HWA_reset                                                            
0002305d  HWA_setDMA2ACCManualTrig                                             
000252f9  HwiP_Params_init                                                     
0001e791  HwiP_create                                                          
00023099  HwiP_delete                                                          
0000a819  HwiP_disable                                                         
00005e8d  HwiP_disableInterrupt                                                
0000cead  HwiP_enableInterrupt                                                 
00024cc9  HwiP_restore                                                         
0001b8d1  MMWave_addBpmChirp                                                   
00018b6d  MMWave_addChirp                                                      
0001a409  MMWave_addProfile                                                    
0001f225  MMWave_config                                                        
00018c35  MMWave_configBPM                                                     
0001be91  MMWave_configLink                                                    
00022d83  MMWave_decodeError                                                   
0000b4d9  MMWave_decodeErrorLevel                                              
0001def5  MMWave_deviceCfgAsyncEvent                                           
0001f6a1  MMWave_deviceCfgFxn                                                  
0001df79  MMWave_deviceEventFxn                                                
0000afd5  MMWave_deviceExecuteFxn                                              
00025471  MMWave_deviceGetDeviceInfo                                           
000156dd  MMWave_deviceInitFxn                                                 
0001ea09  MMWave_deviceOpenFxn                                                 
0001f299  MMWave_deviceStartFxn                                                
0001fd69  MMWave_deviceStopFxn                                                 
00024e43  MMWave_deviceSyncFxn                                                 
00024e5d  MMWave_encodeError                                                   
00021039  MMWave_execute                                                       
0002269b  MMWave_executeLink                                                   
00018cfd  MMWave_flushCfg                                                      
0001e391  MMWave_getBpmChirpCfg                                                
0001b0f9  MMWave_getBpmChirpHandle                                             
0001c681  MMWave_getChirpCfg                                                   
00018dc5  MMWave_getChirpHandle                                                
0001dffd  MMWave_getNumBpmChirp                                                
0001f135  MMWave_getNumChirps                                                  
0001dcd5  MMWave_getProfileCfg                                                 
0001bf2d  MMWave_getProfileHandle                                              
00017ae9  MMWave_init                                                          
000213f5  MMWave_initLink                                                      
00024e77  MMWave_listAdd                                                       
000247c5  MMWave_listCat                                                       
000158fd  MMWave_listGetHead                                                   
00016e2d  MMWave_listGetNext                                                   
00024bb1  MMWave_listRemove                                                    
000236e5  MMWave_listRemoveNode                                                
0001e081  MMWave_open                                                          
00011139  MMWave_openLink                                                      
00023af9  MMWave_osalMutexCreate                                               
00025335  MMWave_osalMutexDelete                                               
00024fbd  MMWave_osalMutexLock                                                 
0000f605  MMWave_osalMutexUnlock                                               
00023b25  MMWave_osalSemCreate                                                 
00025349  MMWave_osalSemDelete                                                 
00010df5  MMWave_osalSemSignal                                                 
00024fd5  MMWave_osalSemWait                                                   
0001b975  MMWave_start                                                         
00015f2d  MMWave_startLink                                                     
00020ae9  MMWave_stop                                                          
0001f9a1  MMWave_stopLink                                                      
00021839  MMWave_sync                                                          
00023ed5  Mailbox_Config_init                                                  
0001d2c5  Mailbox_close                                                        
00027530  Mailbox_defaultCfg                                                   
0001ea85  Mailbox_init                                                         
0000be95  Mailbox_open                                                         
00017e59  Mailbox_read                                                         
0001fdd1  Mailbox_readFlush                                                    
00015b15  Mailbox_write                                                        
00022ef1  Mailbox_writeReset                                                   
00025483  MemoryP_ctrlAlloc                                                    
00021645  MemoryP_ctrlFree                                                     
0000d929  MemoryP_getStats                                                     
0001eb01  MmwDemoCLIMaxAccelerationParamCfg                                    
0001a991  MmwDemo_ADCBufConfig                                                 
00023d3b  MmwDemo_ADCBufOpen                                                   
0001b1a1  MmwDemo_CLIAllocationParamCfg                                        
0001a4b9  MmwDemo_CLIBoundaryBoxCfg                                            
0001bfc9  MmwDemo_CLIGatingParamCfg                                            
000027b1  MmwDemo_CLIInit                                                      
0001eb7d  MmwDemo_CLIStateParamCfg                                             
0001a569  MmwDemo_CLIStaticBoundaryBoxCfg                                      
00010c59  MmwDemo_CLITrackingCfg                                               
00021449  MmwDemo_CfgUpdate                                                    
000118f5  MmwDemo_LVDSStreamDeleteHwSession                                    
00012205  MmwDemo_LVDSStreamDeleteSwSession                                    
0000ad4d  MmwDemo_LVDSStreamHwConfig                                           
000100b9  MmwDemo_LVDSStreamInit                                               
000127c9  MmwDemo_LVDSStreamSwConfig                                           
000199f5  MmwDemo_LVDSStream_EDMAInit                                          
08020904  MmwDemo_RFParserHwCfg                                                
0002535d  MmwDemo_RFParser_getNumSubFrames                                     
0001c7b1  MmwDemo_RFParser_parseConfig                                         
000105c5  MmwDemo_bpmConfig                                                    
000138f1  MmwDemo_configLVDSHwData                                             
00013a35  MmwDemo_configSensor                                                 
0001a619  MmwDemo_isAllCfgInNonPendingState                                    
00019575  MmwDemo_isAllCfgInPendingState                                       
0000bc31  MmwDemo_openSensor                                                   
0002149d  MmwDemo_resetStaticCfgPendingState                                   
0001dbbd  MmwDemo_sleep                                                        
0000dd35  MmwDemo_startSensor                                                  
0000c805  MmwDemo_stopSensor                                                   
0000e729  MmwDemo_transferLVDSUserData                                         
0001fa0d  Pinmux_Set_FuncSel                                                   
0001b399  Pinmux_Set_OverrideCtrl                                              
000246bb  QSPIFlashGetStatus                                                   
00025565  QSPIFlashWriteCmd                                                    
0802090c  QSPIFlash_deviceFxnTbl_macronix                                      
08020914  QSPIFlash_deviceFxnTbl_spansion                                      
00006c83  QSPIFlash_init                                                       
0000b761  QSPIFlash_open                                                       
000214f1  QSPIFlash_writeEnable                                                
00025575  QSPI_Params_init                                                     
0001f1ad  QSPI_cfgRead                                                         
0001fae5  QSPI_cfgWrite                                                        
0002780c  QSPI_defaultParams                                                   
00008807  QSPI_init                                                            
0001292d  QSPI_open                                                            
UNDEFED   SHT$$INIT_ARRAY$$Base                                                
UNDEFED   SHT$$INIT_ARRAY$$Limit                                               
0001a0e7  SOC_MPUAreRegionsSeparate                                            
0001a093  SOC_MPUDisable                                                       
0001a0c7  SOC_MPUDisableBackgroundRegion                                       
0001a075  SOC_MPUEnable                                                        
0001a0b1  SOC_MPUEnableBackgroundRegion                                        
0001a0dd  SOC_MPUGetNumberOfRegions                                            
0001a0f5  SOC_MPUGetRegion                                                     
0001a101  SOC_MPUGetRegionBaseAddress                                          
0001a11b  SOC_MPUGetRegionPermission                                           
0001a111  SOC_MPUGetRegionType                                                 
0001a0ef  SOC_MPUSetRegion                                                     
0001a0fb  SOC_MPUSetRegionBaseAddress                                          
0001a125  SOC_MPUSetRegionSizeRegister                                         
0001a107  SOC_MPUSetRegionTypeAndPermission                                    
00023d65  SOC_SystemISR                                                        
0802048c  SOC_TranslateAddr_LUT                                                
00018429  SOC_controlSecureFirewall                                            
0001b441  SOC_deregisterSysIntListener                                         
00008b31  SOC_deviceInit                                                       
000233d1  SOC_enableHWA                                                        
00020ba1  SOC_enableLVDS                                                       
0001ce29  SOC_gateClock                                                        
00023715  SOC_getDevicePartNumber                                              
0001e491  SOC_getDeviceRFFreqScaleFactor                                       
00024c05  SOC_getInAddr_LUTType                                                
000249cd  SOC_getOutAddr_LUTType                                               
00023405  SOC_hasDSPCore                                                       
0001d74d  SOC_init                                                             
000244b9  SOC_isDSSOperational                                                 
000244dd  SOC_isMMWaveDSSOperational                                           
00024501  SOC_isMMWaveMSSOperational                                           
00022f2d  SOC_isSecureDevice                                                   
00023643  SOC_microDelay                                                       
0001bca5  SOC_registerSysIntListener                                           
000223c9  SOC_resetDMA                                                         
00023439  SOC_setMMWaveDSSLinkState                                            
0002346d  SOC_setMMWaveMSSLinkState                                            
000234a1  SOC_setMSSLinkState                                                  
0001d7d9  SOC_translateAddress                                                 
00018f55  SOC_ungateClock                                                      
00022f69  SOC_unhaltBSS                                                        
00023b51  SOC_waitBSSPowerUp                                                   
00013b79  SemaphoreP_Params_init                                               
000203d5  SemaphoreP_create                                                    
000254e3  SemaphoreP_delete                                                    
00025495  SemaphoreP_pend                                                      
00022495  SemaphoreP_post                                                      
00022495  SemaphoreP_postFromClock                                             
00022495  SemaphoreP_postFromISR                                               
00014655  UART_Params_init                                                     
08020664  UART_config                                                          
00027344  UART_defaultParams                                                   
00023225  UART_init                                                            
000234d5  UART_open                                                            
000224e5  UART_read                                                            
00022535  UART_write                                                           
00022585  UART_writePolling                                                    
00021141  UartSci_closeDMA                                                     
000246dd  UartSci_disableRxDMA                                                 
00025385  UartSci_disableTxDMA                                                 
000246ff  UartSci_enableRxDMA                                                  
00025399  UartSci_enableTxDMA                                                  
0001d865  UartSci_initiateRxDMA                                                
0001d355  UartSci_initiateTxDMA                                                
00016b35  UartSci_isDMAEnabled                                                 
0001a2a5  UartSci_openDMA                                                      
0002398f  _DPC_Objdet_Assert                                                   
000253ad  _DebugP_assert                                                       
00024329  _MmwDemo_debugAssert                                                 
00000000  __ASM__                                                              
0801e444  __CIOBUF_                                                            
00000069  __ISA__                                                              
0000007b  __PLAT__                                                             
080229f8  __STACK_END                                                          
00000800  __STACK_SIZE                                                         
0000009f  __TARG__                                                             
000281a0  __TI_CINIT_Base                                                      
000281d0  __TI_CINIT_Limit                                                     
00028168  __TI_Handler_Table_Base                                              
00028174  __TI_Handler_Table_Limit                                             
0001bd45  __TI_auto_init                                                       
0000fc37  __TI_cleanup                                                         
080208cc  __TI_cleanup_ptr                                                     
0001c849  __TI_closefile                                                       
0001fb51  __TI_decompress_lzss                                                 
00025503  __TI_decompress_none                                                 
000189d5  __TI_doflush                                                         
080208d0  __TI_dtors_ptr                                                       
080208d4  __TI_enable_exit_profile_output                                      
0802089c  __TI_ft_end                                                          
ffffffff  __TI_pprof_out_hndl                                                  
000008c5  __TI_printfi                                                         
ffffffff  __TI_prof_data_size                                                  
ffffffff  __TI_prof_data_start                                                 
0001aaa3  __TI_rd_ok                                                           
0001fc5f  __TI_readmsg                                                         
00027b78  __TI_static_base__                                                   
0801e664  __TI_tmpnams                                                         
0001fc29  __TI_writemsg                                                        
0001aa3f  __TI_wrt_ok                                                          
0001a1e5  __TI_zero_init                                                       
000000c6  __TRDR__                                                             
0000d723  __aeabi_idiv0                                                        
0001ee63  __aeabi_memclr                                                       
0001ee63  __aeabi_memclr4                                                      
0001ee63  __aeabi_memclr8                                                      
0001c2d5  __aeabi_memcpy                                                       
0001c2d5  __aeabi_memcpy4                                                      
0001c2d5  __aeabi_memcpy8                                                      
0001ee65  __aeabi_memset                                                       
0001ee65  __aeabi_memset4                                                      
0001ee65  __aeabi_memset8                                                      
080208a8  __aeabi_stderr                                                       
080208a0  __aeabi_stdin                                                        
080208a4  __aeabi_stdout                                                       
00021ab8  __aeabi_uidiv                                                        
00021ab8  __aeabi_uidivmod                                                     
000232c9  __aeabi_ul2f                                                         
0000a2b8  __aeabi_uldivmod                                                     
ffffffff  __binit__                                                            
ffffffff  __c_args__                                                           
00019fbd  __kernel_cos                                                         
00003d59  __kernel_rem_pio2                                                    
0001babd  __kernel_sin                                                         
080221f8  __stack                                                              
00025095  _args_main                                                           
0001f30c  _c_int00                                                             
00026f20  _ctypes_                                                             
08020200  _device                                                              
0801fff8  _ftable                                                              
080208fc  _lock                                                                
0002540b  _nop                                                                 
00025403  _register_lock                                                       
000253fd  _register_unlock                                                     
080203a4  _stream                                                              
08020900  _unlock                                                              
00021a6d  abort                                                                
0801fbf8  appAllocationParamTable                                              
0801fba8  appGatingParamTable                                                  
0801fc58  appSceneryParamTable                                                 
0801fb40  appStateParamTable                                                   
0801fb68  appVariationParamTable                                               
00012d49  atanf                                                                
00021a19  atoi                                                                 
ffffffff  binit                                                                
000211f1  close                                                                
00021dc1  copy_in                                                              
00024ec5  copysign                                                             
000254b9  copysignf                                                            
00024ec5  copysignl                                                            
00007d59  cos                                                                  
00007d59  cosl                                                                 
000263e8  defaultAllocationParams                                              
000263d4  defaultGatingParams                                                  
00026400  defaultSceneryParams                                                 
000263b8  defaultStateParams                                                   
000263c4  defaultVariationParams                                               
0801d900  edmaDbg                                                              
080209b4  errno                                                                
00021a75  exit                                                                 
0001c8af  fclose                                                               
00018a21  fflush                                                               
0001f3f5  finddevice                                                           
00017a09  floor                                                                
00017a09  floorl                                                               
0000fc8d  fopen                                                                
0001c8e1  fputc                                                                
00024e91  free                                                                 
0000fc63  freopen                                                              
0001f469  frexp                                                                
0001f469  frexpl                                                               
00020439  fseek                                                                
000277d8  gADCBufFxnTable                                                      
0002781c  gADCBufHwCfg                                                         
08020278  gCBUFFHwAttribute                                                    
08020548  gCBUFFInterfaceFxn                                                   
0801e108  gCLI                                                                 
0801f8b0  gCLIMMWaveControlCfg                                                 
0801f808  gCLIMMWaveExtensionTable                                             
0801f7e0  gCLIMMWaveOpenCfg                                                    
0801f7d8  gCLI_mmwave_freq_scale_factor                                        
0802099c  gCRCRegister                                                         
080209f8  gDPCTCM                                                              
08020688  gDPC_ObjDetRangeHWACfg                                               
080209a0  gDPM                                                                 
0802091c  gDPMHwAttrib                                                         
000274b8  gDPMMessageFxnTable                                                  
08020854  gDPMRemoteTable                                                      
080208d8  gESMHwCfgAttrs                                                       
000273bc  gEdmaHwAttrs                                                         
0801e798  gEsmMCB                                                              
08020924  gGPIOHwAtrrib                                                        
0801e2b0  gGPIOMCB                                                             
080209ec  gGtrackMemoryUsed                                                    
0801e708  gHSIHeaderMCB                                                        
080206f4  gHWADriverPtr                                                        
080205b4  gHWAHwCfg                                                            
0802087c  gHwaEDMAChanMapping                                                  
080207ac  gInterleavedTransferFxn                                              
0801e808  gMMWave_DualcoreMCB                                                  
0801e564  gMMWave_MCB                                                          
080203f4  gMailboxMCB                                                          
080207c4  gMailboxMssBssHwCfg                                                  
080207dc  gMailboxMssDssHwCfg                                                  
51000000  gMmwL3                                                               
0801e9c0  gMmwMssMCB                                                           
080207f4  gMultipleChirpNonInterleavedTransferFxn                              
0802080c  gNonInterleavedTransferFxn                                           
0801e704  gObjDetObj                                                           
080209a8  gPinmuxRegs                                                          
080209ac  gQSPIDriverPtr                                                       
08020994  gQSPIFlashHwCfg                                                      
0802088c  gQSPIHwCfg                                                           
0801e828  gRFLdoBypassCfg                                                      
080206f8  gSOCHwAttrib                                                         
0802063c  gUartSciFxnTable                                                     
0802034c  gUartSciHwCfg                                                        
0001f423  getdevice                                                            
00025035  gtrack_alloc                                                         
000216f7  gtrack_calcDim                                                       
0001cebd  gtrack_calcDistance                                                  
0001a6c9  gtrack_calcMeasurementLimits                                         
000141a5  gtrack_cartesian2spherical                                           
0000e911  gtrack_computeJacobian                                               
0001b6e1  gtrack_computeMahalanobis                                            
00020179  gtrack_computeMahalanobisPartial                                     
00005975  gtrack_create                                                        
0001b4e9  gtrack_delete                                                        
00025585  gtrack_free                                                          
00021199  gtrack_isPointBehindTarget                                           
0001fea1  gtrack_isPointInsideBox                                              
00024525  gtrack_listDequeue                                                   
00024079  gtrack_listEnqueue                                                   
000215ed  gtrack_listGetCount                                                  
00021e0d  gtrack_listGetFirst                                                  
00021efd  gtrack_listGetNext                                                   
00023805  gtrack_listInit                                                      
0001f4dd  gtrack_listRemoveElement                                             
00024d49  gtrack_log                                                           
00023745  gtrack_matrixAdd                                                     
0001d631  gtrack_matrixComputePJT                                              
0001ede9  gtrack_matrixCovAcc                                                  
0001cf51  gtrack_matrixCovFilter                                               
0001fbbd  gtrack_matrixCovNormalize                                            
00024c59  gtrack_matrixGetDiag                                                 
000249eb  gtrack_matrixInit                                                    
000084d5  gtrack_matrixInv                                                     
0001c5e7  gtrack_matrixMakeSymmetrical                                         
0001d8f1  gtrack_matrixMultiply                                                
0001e811  gtrack_matrixPrint                                                   
00018285  gtrack_matrixPrint2                                                  
000228a1  gtrack_matrixSetDiag                                                 
00023775  gtrack_matrixSub                                                     
0001dd5d  gtrack_matrixTransposeMultiply                                       
0000c355  gtrack_moduleAllocate                                                
000226dd  gtrack_moduleAssociate                                               
000218d9  gtrack_modulePredict                                                 
000228e1  gtrack_moduleReport                                                  
0001e591  gtrack_moduleUpdate                                                  
0001e105  gtrack_sincosd                                                       
0001e611  gtrack_sph2cart                                                      
00016545  gtrack_spherical2cartesian                                           
0000e141  gtrack_step                                                          
00017929  gtrack_unitCreate                                                    
00014c19  gtrack_unitDelete                                                    
00010f9d  gtrack_unitEvent                                                     
000256c1  gtrack_unitGetH                                                      
0000e33d  gtrack_unitPredict                                                   
00021d75  gtrack_unitReport                                                    
0000eebd  gtrack_unitScore                                                     
00010419  gtrack_unitStart                                                     
0001c239  gtrack_unitStop                                                      
0000117d  gtrack_unitUpdate                                                    
00020a2f  gtrack_unrollRadialVelocity                                          
0002409f  gtrack_vectorAdd                                                     
00025595  gtrack_vectorInit                                                    
00024c75  gtrack_vectorScalarMul                                               
00024805  gtrack_vectorScalarMulAcc                                            
000240c5  gtrack_vectorSub                                                     
0000681d  gtrack_velocityStateHandling                                         
0801e830  gts                                                                  
0801e82c  gtsIdx                                                               
00014af5  init_qspiflash                                                       
000171f1  ldexp                                                                
000180d5  ldexpf                                                               
000171f1  ldexpl                                                               
0000eaf5  logf                                                                 
00023f9d  lseek                                                                
00021545  ltoa                                                                 
0000f439  main                                                                 
080209c0  main_func_sp                                                         
000239ef  malloc                                                               
000253c1  mathUtils_ceilLog2                                                   
00023c85  mathUtils_floorLog2                                                  
0001452d  mathUtils_genWindow                                                  
000254a7  mathUtils_pow2roundup                                                
00024c91  memccpy                                                              
000242d9  memcmp                                                               
0001c2d5  memcpy                                                               
0001ee6b  memset                                                               
00022dff  mmwDemo_cfgAnalogMonitor                                             
000240eb  mmwDemo_cfgRxSaturationMonitor                                       
00024a09  mmwDemo_cfgRxSigImgMonitor                                           
00019ab1  open                                                                 
00027554  pInit                                                                
0801e810  parmbuf                                                              
0801f97c  partInfoStringArray                                                  
00004929  powf                                                                 
0001c8e1  putc                                                                 
0001c967  putchar                                                              
0801e820  qspiHandle                                                           
0801e824  qspiflashHandle                                                      
080209a4  regionId                                                             
00023bd5  remove                                                               
000253d5  rlAppendDummy                                                        
0002325d  rlAppendSubBlock                                                     
00023d8f  rlDeviceGetMmWaveLinkVersion                                         
00023b7d  rlDeviceGetMssVersion                                                
0002504d  rlDeviceGetRfVersion                                                 
00022155  rlDeviceGetVersion                                                   
00021979  rlDeviceIdentifyCmdDir                                               
000201df  rlDevicePowerOff                                                     
0001d97d  rlDevicePowerOn                                                      
00024549  rlDeviceSetHsiClk                                                    
0001f381  rlDriverAsyncEventHandler                                            
00025065  rlDriverCalCRC                                                       
00020d77  rlDriverCalChkSum                                                    
000112cd  rlDriverCmdInvoke                                                    
000137a9  rlDriverCmdSendRetry                                                 
00023f4d  rlDriverConstructInMsg                                               
00016239  rlDriverConstructOutMsg                                              
0001cfe5  rlDriverDeInit                                                       
0001e691  rlDriverExecuteGetApi                                                
0001ffd9  rlDriverExecuteSetApi                                                
0002507d  rlDriverFillPayload                                                  
000181a9  rlDriverGetHandle                                                    
0001ac45  rlDriverGetPlatformId                                                
00020041  rlDriverHostIrqHandler                                               
00016645  rlDriverInit                                                         
000253e9  rlDriverIsDeviceMapValid                                             
00017bc5  rlDriverMsgCmdReply                                                  
00010269  rlDriverMsgRead                                                      
0001d079  rlDriverMsgReadCmdCtx                                                
0001da09  rlDriverMsgReadSpawnCtx                                              
00019635  rlDriverMsgWrite                                                     
0002219d  rlDriverOsiInit                                                      
0001d10d  rlDriverProcRdMsg                                                    
00016c3d  rlDriverRdVerifyMsg                                                  
0000f9a5  rlDriverRxHdrRead                                                    
00022921  rlDriverValidateHdr                                                  
000219c9  rlDriverVerifyCRC                                                    
0001b591  rlDriverWaitForResponse                                              
0002456d  rlEnableContMode                                                     
00024eab  rlGetRfDieId                                                         
0002271f  rlGetSubBlock                                                        
000254cb  rlGetSubBlockId                                                      
0002577b  rlGetSubBlockLen                                                     
00024111  rlRfAnaMonConfig                                                     
0001883d  rlRfCalibDataRestore                                                 
00024825  rlRfInit                                                             
00024137  rlRfInitCalibConfig                                                  
000175a1  rlRfPhShiftCalibDataRestore                                          
0002415d  rlRfRunTimeCalibConfig                                               
00024183  rlRfRxIfSatMonConfig                                                 
000241a9  rlRfRxSigImgMonConfig                                                
000241cf  rlRfSetCalMonFreqLimitConfig                                         
00024591  rlRfSetCalMonTimeUnitConfig                                          
000241f5  rlRfSetDeviceCfg                                                     
0002421b  rlRfSetLdoBypassConfig                                               
000237a5  rlSensorStart                                                        
00023ba9  rlSensorStop                                                         
00024241  rlSetAdcOutConfig                                                    
0001b639  rlSetAdvFrameConfig                                                  
00024267  rlSetBpmCommonConfig                                                 
0002428d  rlSetChannelConfig                                                   
00018909  rlSetChirpConfig                                                     
000242b3  rlSetContModeConfig                                                  
0001901d  rlSetFrameConfig                                                     
000245b5  rlSetLowPowerModeConfig                                              
00018001  rlSetMultiBpmChirpConfig                                             
0001a779  rlSetProfileConfig                                                   
0801f4f0  rl_rxMsg                                                             
0801f3f0  rl_txMsg                                                             
000171f1  scalbn                                                               
000180d5  scalbnf                                                              
000171f1  scalbnl                                                              
00017ca1  setvbuf                                                              
0002782c  spreadInit                                                           
0002783c  spreadMin                                                            
0002049d  sprintf                                                              
00023f75  sqrtf                                                                
0002522d  strchr                                                               
000250ad  strcmp                                                               
00025411  strcpy                                                               
00024721  strcspn                                                              
00025243  strlen                                                               
00023293  strncpy                                                              
00023db9  strspn                                                               
0000ecd9  strtod                                                               
00022961  strtok                                                               
0000ecd9  strtold                                                              
00008e99  tanf                                                                 
080206ac  ti_sysbios_BIOS_Module__state__V                                     
0002513d  ti_sysbios_BIOS_RtsGateProxy_Handle__label__S                        
0002301d  ti_sysbios_BIOS_RtsGateProxy_enter__E                                
000239bd  ti_sysbios_BIOS_RtsGateProxy_leave__E                                
00025801  ti_sysbios_BIOS_RtsGateProxy_query__E                                
00023c01  ti_sysbios_BIOS_atExitFunc__I                                        
00024a27  ti_sysbios_BIOS_errorRaiseHook__I                                    
00025259  ti_sysbios_BIOS_exitFunc__I                                          
000255b1  ti_sysbios_BIOS_getCpuFreq__E                                        
00025851  ti_sysbios_BIOS_linkedWithIncorrectBootLibrary__E                    
0000e537  ti_sysbios_BIOS_nullFunc__I                                          
000245d9  ti_sysbios_BIOS_registerRTSLock__I                                   
000245fd  ti_sysbios_BIOS_removeRTSLock__I                                     
00024cad  ti_sysbios_BIOS_rtsLock__I                                           
000250c5  ti_sysbios_BIOS_rtsUnlock__I                                         
000255c1  ti_sysbios_BIOS_setThreadType__E                                     
000237d5  ti_sysbios_BIOS_startFunc__I                                         
000255d1  ti_sysbios_BIOS_start__E                                             
000196f4  ti_sysbios_family_arm_IntrinsicsSupport_maxbitA__I                   
000196f4  ti_sysbios_family_arm_IntrinsicsSupport_maxbit__E                    
00023fed  ti_sysbios_family_arm_TaskSupport_Module__startupDone__S             
0001ec74  ti_sysbios_family_arm_TaskSupport_buildTaskStack                     
000256f1  ti_sysbios_family_arm_TaskSupport_checkStack__E                      
00025701  ti_sysbios_family_arm_TaskSupport_getStackAlignment__E               
00024c20  ti_sysbios_family_arm_TaskSupport_glue                               
000278a0  ti_sysbios_family_arm_TaskSupport_stackAlignment__C                  
00024851  ti_sysbios_family_arm_TaskSupport_stackUsed__E                       
00023811  ti_sysbios_family_arm_TaskSupport_start__E                           
00024c3c  ti_sysbios_family_arm_TaskSupport_swap__E                            
080209c8  ti_sysbios_family_arm_a15_TimestampProvider_Module__state__V         
000255e1  ti_sysbios_family_arm_a15_TimestampProvider_Module_startup__E        
00024871  ti_sysbios_family_arm_a15_TimestampProvider_autoRefreshFxn__I        
0002578b  ti_sysbios_family_arm_a15_TimestampProvider_get32__E                 
00023511  ti_sysbios_family_arm_a15_TimestampProvider_get64__E                 
000255b1  ti_sysbios_family_arm_a15_TimestampProvider_getFreq__E               
000256cf  ti_sysbios_family_arm_a15_TimestampProvider_getOverflowCCNT__I       
00024edf  ti_sysbios_family_arm_a15_TimestampProvider_initCCNT__I              
000278a4  ti_sysbios_family_arm_exc_Exception_E_dataAbort__C                   
000278a8  ti_sysbios_family_arm_exc_Exception_E_prefetchAbort__C               
000278ac  ti_sysbios_family_arm_exc_Exception_E_swi__C                         
000278b0  ti_sysbios_family_arm_exc_Exception_E_undefinedInstruction__C        
08020992  ti_sysbios_family_arm_exc_Exception_Module_State_0_excActive__A      
080209cc  ti_sysbios_family_arm_exc_Exception_Module_State_0_excContext__A     
080209d0  ti_sysbios_family_arm_exc_Exception_Module_State_0_excStackBuffers__A
0801c900  ti_sysbios_family_arm_exc_Exception_Module_State_0_excStack_0__A     
080209d4  ti_sysbios_family_arm_exc_Exception_Module_State_0_excStack__A       
00026b0e  ti_sysbios_family_arm_exc_Exception_Module__id__C                    
08020868  ti_sysbios_family_arm_exc_Exception_Module__state__V                 
00025711  ti_sysbios_family_arm_exc_Exception_Module_startup__E                
0000b4e1  ti_sysbios_family_arm_exc_Exception_excDumpContext__I                
000184f8  ti_sysbios_family_arm_exc_Exception_excHandlerAsm__I                 
00018560  ti_sysbios_family_arm_exc_Exception_excHandlerDataAsm__I             
00012661  ti_sysbios_family_arm_exc_Exception_excHandler__I                    
000278b4  ti_sysbios_family_arm_exc_Exception_excHookFuncs__A                  
000278b8  ti_sysbios_family_arm_exc_Exception_excHookFuncs__C                  
00020500  ti_sysbios_family_arm_exc_Exception_initCore0__I                     
000278bc  ti_sysbios_family_arm_v7a_Pmu_A_invalidCounterId__C                  
000278c0  ti_sysbios_family_arm_v7a_Pmu_Module__diagsEnabled__C                
000278c4  ti_sysbios_family_arm_v7a_Pmu_Module__diagsIncluded__C               
000278c8  ti_sysbios_family_arm_v7a_Pmu_Module__diagsMask__C                   
00027022  ti_sysbios_family_arm_v7a_Pmu_Module__id__C                          
080208e4  ti_sysbios_family_arm_v7a_Pmu_Module__state__V                       
00024891  ti_sysbios_family_arm_v7a_Pmu_Module_startup__E                      
0001bde4  ti_sysbios_family_arm_v7a_Pmu_configureCounterI__I                   
00019331  ti_sysbios_family_arm_v7a_Pmu_configureCounter__E                    
000255f0  ti_sysbios_family_arm_v7a_Pmu_disableInterruptI__E                   
00025600  ti_sysbios_family_arm_v7a_Pmu_enableInterruptI__E                    
0001d474  ti_sysbios_family_arm_v7a_Pmu_getCountI__E                           
0001daa1  ti_sysbios_family_arm_v7a_Pmu_getCount__E                            
000185c8  ti_sysbios_family_arm_v7a_Pmu_getEnabled__E                          
00025610  ti_sysbios_family_arm_v7a_Pmu_getNumCounters__E                      
000250dc  ti_sysbios_family_arm_v7a_Pmu_initCounters__I                        
00025620  ti_sysbios_family_arm_v7a_Pmu_startCounterI__E                       
0001d481  ti_sysbios_family_arm_v7a_Pmu_startCounter__E                        
00025630  ti_sysbios_family_arm_v7a_Pmu_stopCounterI__E                        
000278cc  ti_sysbios_family_arm_v7r_tms570_Core_E_mismatchedIds__C             
00027b38  ti_sysbios_family_arm_v7r_tms570_Core_Module__id__C                  
000224a1  ti_sysbios_family_arm_v7r_tms570_Core_Module_startup__E              
00024645  ti_sysbios_family_arm_v7r_tms570_Core_getId__E                       
000278d0  ti_sysbios_family_arm_v7r_tms570_Core_id__C                          
000278d4  ti_sysbios_family_arm_v7r_vim_Hwi_A_badChannelId__C                  
000278d8  ti_sysbios_family_arm_v7r_vim_Hwi_E_alreadyDefined__C                
000278dc  ti_sysbios_family_arm_v7r_vim_Hwi_E_badIntNum__C                     
000278e0  ti_sysbios_family_arm_v7r_vim_Hwi_E_phantomInterrupt__C              
000278e4  ti_sysbios_family_arm_v7r_vim_Hwi_E_undefined__C                     
000278e8  ti_sysbios_family_arm_v7r_vim_Hwi_E_unsupportedMaskingOption__C      
0001db31  ti_sysbios_family_arm_v7r_vim_Hwi_Instance_finalize__E               
00014d41  ti_sysbios_family_arm_v7r_vim_Hwi_Instance_init__E                   
000278ec  ti_sysbios_family_arm_v7r_vim_Hwi_LD_end__C                          
000278f0  ti_sysbios_family_arm_v7r_vim_Hwi_LM_begin__C                        
0801fdf8  ti_sysbios_family_arm_v7r_vim_Hwi_Module_State_0_dispatchTable__A    
080219f8  ti_sysbios_family_arm_v7r_vim_Hwi_Module_State_0_fiqStack__A         
000278f4  ti_sysbios_family_arm_v7r_vim_Hwi_Module__diagsEnabled__C            
000278f8  ti_sysbios_family_arm_v7r_vim_Hwi_Module__diagsIncluded__C           
000278fc  ti_sysbios_family_arm_v7r_vim_Hwi_Module__diagsMask__C               
00027b3a  ti_sysbios_family_arm_v7r_vim_Hwi_Module__id__C                      
00027b3c  ti_sysbios_family_arm_v7r_vim_Hwi_Module__loggerDefined__C           
00027900  ti_sysbios_family_arm_v7r_vim_Hwi_Module__loggerFxn1__C              
00027904  ti_sysbios_family_arm_v7r_vim_Hwi_Module__loggerFxn8__C              
00027908  ti_sysbios_family_arm_v7r_vim_Hwi_Module__loggerObj__C               
0802092c  ti_sysbios_family_arm_v7r_vim_Hwi_Module__root__V                    
000250f5  ti_sysbios_family_arm_v7r_vim_Hwi_Module__startupDone__F             
000250f5  ti_sysbios_family_arm_v7r_vim_Hwi_Module__startupDone__S             
08020580  ti_sysbios_family_arm_v7r_vim_Hwi_Module__state__V                   
00016e31  ti_sysbios_family_arm_v7r_vim_Hwi_Module_startup__E                  
0002790c  ti_sysbios_family_arm_v7r_vim_Hwi_NUM_INTERRUPTS__C                  
00027648  ti_sysbios_family_arm_v7r_vim_Hwi_Object__DESC__C                    
00027458  ti_sysbios_family_arm_v7r_vim_Hwi_Object__PARAMS__C                  
000248b1  ti_sysbios_family_arm_v7r_vim_Hwi_Object__delete__S                  
080205e4  ti_sysbios_family_arm_v7r_vim_Hwi_Object__table__V                   
0002510d  ti_sysbios_family_arm_v7r_vim_Hwi_Params__init__S                    
000271e8  ti_sysbios_family_arm_v7r_vim_Hwi_channelMap__A                      
00027910  ti_sysbios_family_arm_v7r_vim_Hwi_channelMap__C                      
00024cd1  ti_sysbios_family_arm_v7r_vim_Hwi_clearInterrupt__E                  
00021599  ti_sysbios_family_arm_v7r_vim_Hwi_create                             
00024ced  ti_sysbios_family_arm_v7r_vim_Hwi_delete                             
000248d1  ti_sysbios_family_arm_v7r_vim_Hwi_disableInterrupt__E                
0000f611  ti_sysbios_family_arm_v7r_vim_Hwi_dispatchIRQC__I                    
0001d1a0  ti_sysbios_family_arm_v7r_vim_Hwi_dispatchIRQ__I                     
000248f1  ti_sysbios_family_arm_v7r_vim_Hwi_enableInterrupt__E                 
00021e11  ti_sysbios_family_arm_v7r_vim_Hwi_getStackInfo__E                    
0001c371  ti_sysbios_family_arm_v7r_vim_Hwi_initIntController__I               
00022fa4  ti_sysbios_family_arm_v7r_vim_Hwi_init__I                            
0002784c  ti_sysbios_family_arm_v7r_vim_Hwi_intReqEnaSet__A                    
00027914  ti_sysbios_family_arm_v7r_vim_Hwi_intReqEnaSet__C                    
0001c411  ti_sysbios_family_arm_v7r_vim_Hwi_mapChannel__I                      
00027918  ti_sysbios_family_arm_v7r_vim_Hwi_phantomFunc__C                     
00020571  ti_sysbios_family_arm_v7r_vim_Hwi_phantomIntHandler__I               
00012a91  ti_sysbios_family_arm_v7r_vim_Hwi_reconfig__E                        
000257a1  ti_sysbios_family_arm_v7r_vim_Hwi_startup__E                         
00025721  ti_sysbios_family_arm_v7r_vim_Hwi_switchFromBootStack__E             
0002791c  ti_sysbios_family_arm_v7r_vim_Hwi_taskDisable__C                     
00027920  ti_sysbios_family_arm_v7r_vim_Hwi_taskRestoreHwi__C                  
00000000  ti_sysbios_family_arm_v7r_vim_Hwi_vectors                            
fffffdec  ti_sysbios_family_arm_v7r_vim_Hwi_vim                                
0002785c  ti_sysbios_family_arm_v7r_vim_Hwi_wakeEnaSet__A                      
00027924  ti_sysbios_family_arm_v7r_vim_Hwi_wakeEnaSet__C                      
0001c9c4  ti_sysbios_family_xxx_Hwi_switchAndRunDispatchC                      
0001c978  ti_sysbios_family_xxx_Hwi_switchAndRunFunc                           
00025125  ti_sysbios_gates_GateHwi_Handle__label__S                            
00025861  ti_sysbios_gates_GateHwi_Instance_init__E                            
00027578  ti_sysbios_gates_GateHwi_Module__FXNS__C                             
08020934  ti_sysbios_gates_GateHwi_Module__root__V                             
00027668  ti_sysbios_gates_GateHwi_Object__DESC__C                             
00027760  ti_sysbios_gates_GateHwi_Object__PARAMS__C                           
00023841  ti_sysbios_gates_GateHwi_Object__create__S                           
00024911  ti_sysbios_gates_GateHwi_Object__delete__S                           
080209d8  ti_sysbios_gates_GateHwi_Object__table__V                            
00025791  ti_sysbios_gates_GateHwi_enter__E                                    
000257b1  ti_sysbios_gates_GateHwi_leave__E                                    
000257f1  ti_sysbios_gates_GateHwi_query__E                                    
00027928  ti_sysbios_gates_GateMutex_A_badContext__C                           
0002513d  ti_sysbios_gates_GateMutex_Handle__label__S                          
0002792c  ti_sysbios_gates_GateMutex_Instance_State_sem__O                     
00025641  ti_sysbios_gates_GateMutex_Instance_finalize__E                      
00024cf1  ti_sysbios_gates_GateMutex_Instance_init__E                          
0002759c  ti_sysbios_gates_GateMutex_Module__FXNS__C                           
00027930  ti_sysbios_gates_GateMutex_Module__diagsEnabled__C                   
00027934  ti_sysbios_gates_GateMutex_Module__diagsIncluded__C                  
00027938  ti_sysbios_gates_GateMutex_Module__diagsMask__C                      
00027b3e  ti_sysbios_gates_GateMutex_Module__id__C                             
0802093c  ti_sysbios_gates_GateMutex_Module__root__V                           
00027688  ti_sysbios_gates_GateMutex_Object__DESC__C                           
00027778  ti_sysbios_gates_GateMutex_Object__PARAMS__C                         
00023871  ti_sysbios_gates_GateMutex_Object__create__S                         
00024621  ti_sysbios_gates_GateMutex_Object__delete__S                         
080204cc  ti_sysbios_gates_GateMutex_Object__table__V                          
0001a131  ti_sysbios_gates_GateMutex_enter__E                                  
00024d11  ti_sysbios_gates_GateMutex_leave__E                                  
00025801  ti_sysbios_gates_GateMutex_query__E                                  
00024645  ti_sysbios_hal_Core_CoreProxy_getId__E                               
0002793c  ti_sysbios_hal_Hwi_E_stackOverflow__C                                
000250f5  ti_sysbios_hal_Hwi_HwiProxy_Module__startupDone__S                   
0002510d  ti_sysbios_hal_Hwi_HwiProxy_Params__init__S                          
00024cd1  ti_sysbios_hal_Hwi_HwiProxy_clearInterrupt__E                        
000248d1  ti_sysbios_hal_Hwi_HwiProxy_disableInterrupt__E                      
000248f1  ti_sysbios_hal_Hwi_HwiProxy_enableInterrupt__E                       
00021e11  ti_sysbios_hal_Hwi_HwiProxy_getStackInfo__E                          
000257a1  ti_sysbios_hal_Hwi_HwiProxy_startup__E                               
00025721  ti_sysbios_hal_Hwi_HwiProxy_switchFromBootStack__E                   
00027b40  ti_sysbios_hal_Hwi_Module__id__C                                     
000254d1  ti_sysbios_hal_Hwi_Module_startup__E                                 
08020944  ti_sysbios_hal_Hwi_Object__table__V                                  
00022fe1  ti_sysbios_hal_Hwi_checkStack                                        
00024cd1  ti_sysbios_hal_Hwi_clearInterrupt__E                                 
000248d1  ti_sysbios_hal_Hwi_disableInterrupt__E                               
000248f1  ti_sysbios_hal_Hwi_enableInterrupt__E                                
00021e11  ti_sysbios_hal_Hwi_getStackInfo__E                                   
00023651  ti_sysbios_hal_Hwi_initStack                                         
000257a1  ti_sysbios_hal_Hwi_startup__E                                        
00025721  ti_sysbios_hal_Hwi_switchFromBootStack__E                            
00027940  ti_sysbios_heaps_HeapBuf_Instance_State_freeList__O                  
080209dc  ti_sysbios_heaps_HeapBuf_Module__state__V                            
000172e1  ti_sysbios_heaps_HeapBuf_Module_startup__E                           
00027944  ti_sysbios_heaps_HeapBuf_Object__count__C                            
00025651  ti_sysbios_heaps_HeapBuf_Object__get__S                              
00027948  ti_sysbios_heaps_HeapBuf_numConstructedHeaps__C                      
0002794c  ti_sysbios_heaps_HeapMem_A_align__C                                  
00027950  ti_sysbios_heaps_HeapMem_A_heapSize__C                               
00027954  ti_sysbios_heaps_HeapMem_A_invalidFree__C                            
00027958  ti_sysbios_heaps_HeapMem_A_zeroBlock__C                              
0002795c  ti_sysbios_heaps_HeapMem_E_memory__C                                 
00025155  ti_sysbios_heaps_HeapMem_Handle__label__S                            
08000000  ti_sysbios_heaps_HeapMem_Instance_State_0_buf__A                     
00013b81  ti_sysbios_heaps_HeapMem_Instance_init__E                            
0002513d  ti_sysbios_heaps_HeapMem_Module_GateProxy_Handle__label__S           
00024d0d  ti_sysbios_heaps_HeapMem_Module_GateProxy_enter__E                   
00024d6d  ti_sysbios_heaps_HeapMem_Module_GateProxy_leave__E                   
00025801  ti_sysbios_heaps_HeapMem_Module_GateProxy_query__E                   
000274e0  ti_sysbios_heaps_HeapMem_Module__FXNS__C                             
00027960  ti_sysbios_heaps_HeapMem_Module__diagsEnabled__C                     
00027964  ti_sysbios_heaps_HeapMem_Module__diagsIncluded__C                    
00027968  ti_sysbios_heaps_HeapMem_Module__diagsMask__C                        
0002796c  ti_sysbios_heaps_HeapMem_Module__gateObj__C                          
00027b42  ti_sysbios_heaps_HeapMem_Module__id__C                               
0802094c  ti_sysbios_heaps_HeapMem_Module__root__V                             
000276a8  ti_sysbios_heaps_HeapMem_Object__DESC__C                             
000275c0  ti_sysbios_heaps_HeapMem_Object__PARAMS__C                           
00027970  ti_sysbios_heaps_HeapMem_Object__count__C                            
000238a1  ti_sysbios_heaps_HeapMem_Object__create__S                           
00024931  ti_sysbios_heaps_HeapMem_Object__delete__S                           
00025425  ti_sysbios_heaps_HeapMem_Object__get__S                              
08020824  ti_sysbios_heaps_HeapMem_Object__table__V                            
0000ceb1  ti_sysbios_heaps_HeapMem_allocUnprotected__E                         
000208b1  ti_sysbios_heaps_HeapMem_alloc__E                                    
0000a821  ti_sysbios_heaps_HeapMem_freeUnprotected__E                          
000238d1  ti_sysbios_heaps_HeapMem_free__E                                     
000215f1  ti_sysbios_heaps_HeapMem_getStats__E                                 
00023021  ti_sysbios_heaps_HeapMem_init__I                                     
000257c1  ti_sysbios_heaps_HeapMem_isBlocking__E                               
00027974  ti_sysbios_heaps_HeapMem_reqAlign__C                                 
00027978  ti_sysbios_knl_Clock_LM_begin__C                                     
0002797c  ti_sysbios_knl_Clock_LM_tick__C                                      
00027980  ti_sysbios_knl_Clock_LW_delayed__C                                   
00027984  ti_sysbios_knl_Clock_Module_State_clockQ__O                          
00027988  ti_sysbios_knl_Clock_Module__diagsEnabled__C                         
0002798c  ti_sysbios_knl_Clock_Module__diagsIncluded__C                        
00027990  ti_sysbios_knl_Clock_Module__diagsMask__C                            
00027b44  ti_sysbios_knl_Clock_Module__id__C                                   
00027b46  ti_sysbios_knl_Clock_Module__loggerDefined__C                        
00027994  ti_sysbios_knl_Clock_Module__loggerFxn1__C                           
00027998  ti_sysbios_knl_Clock_Module__loggerFxn2__C                           
0002799c  ti_sysbios_knl_Clock_Module__loggerObj__C                            
08020610  ti_sysbios_knl_Clock_Module__state__V                                
00024651  ti_sysbios_knl_Clock_Module_startup__E                               
08020718  ti_sysbios_knl_Clock_Object__table__V                                
000251b9  ti_sysbios_knl_Clock_TimerProxy_Module__startupDone__S               
0002519d  ti_sysbios_knl_Clock_TimerProxy_getMaxTicks__E                       
00019701  ti_sysbios_knl_Clock_TimerProxy_startup__E                           
00023c2d  ti_sysbios_knl_Clock_doTick__I                                       
000205e1  ti_sysbios_knl_Clock_logTick__E                                      
00013e01  ti_sysbios_knl_Clock_workFunc__E                                     
0002786c  ti_sysbios_knl_Idle_funcList__A                                      
00027878  ti_sysbios_knl_Idle_funcList__C                                      
00025271  ti_sysbios_knl_Idle_loop__E                                          
00023ff1  ti_sysbios_knl_Idle_run__E                                           
000196f4  ti_sysbios_knl_Intrinsics_SupportProxy_maxbit__E                     
000196f4  ti_sysbios_knl_Intrinsics_maxbit__E                                  
000257d1  ti_sysbios_knl_Queue_Instance_init__E                                
08020954  ti_sysbios_knl_Queue_Module__root__V                                 
000276c8  ti_sysbios_knl_Queue_Object__DESC__C                                 
00027790  ti_sysbios_knl_Queue_Object__PARAMS__C                               
0001da95  ti_sysbios_knl_Queue_Object__get__S                                  
00023c59  ti_sysbios_knl_Queue_construct                                       
00024d2d  ti_sysbios_knl_Queue_destruct                                        
000256e1  ti_sysbios_knl_Queue_empty__E                                        
000279a0  ti_sysbios_knl_Semaphore_A_badContext__C                             
000279a4  ti_sysbios_knl_Semaphore_A_noEvents__C                               
000279a8  ti_sysbios_knl_Semaphore_A_overflow__C                               
000279ac  ti_sysbios_knl_Semaphore_A_pendTaskDisabled__C                       
000279b0  ti_sysbios_knl_Semaphore_Instance_State_pendQ__O                     
00025661  ti_sysbios_knl_Semaphore_Instance_finalize__E                        
0001c4b1  ti_sysbios_knl_Semaphore_Instance_init__E                            
000279b4  ti_sysbios_knl_Semaphore_LM_pend__C                                  
000279b8  ti_sysbios_knl_Semaphore_LM_post__C                                  
000279bc  ti_sysbios_knl_Semaphore_Module__diagsEnabled__C                     
000279c0  ti_sysbios_knl_Semaphore_Module__diagsIncluded__C                    
000279c4  ti_sysbios_knl_Semaphore_Module__diagsMask__C                        
00027b48  ti_sysbios_knl_Semaphore_Module__id__C                               
00027b4a  ti_sysbios_knl_Semaphore_Module__loggerDefined__C                    
000279c8  ti_sysbios_knl_Semaphore_Module__loggerFxn2__C                       
000279cc  ti_sysbios_knl_Semaphore_Module__loggerFxn4__C                       
000279d0  ti_sysbios_knl_Semaphore_Module__loggerObj__C                        
0802095c  ti_sysbios_knl_Semaphore_Module__root__V                             
000276e8  ti_sysbios_knl_Semaphore_Object__DESC__C                             
000275e4  ti_sysbios_knl_Semaphore_Object__PARAMS__C                           
00024675  ti_sysbios_knl_Semaphore_Object__delete__S                           
0002516d  ti_sysbios_knl_Semaphore_Params__init__S                             
00023901  ti_sysbios_knl_Semaphore_construct                                   
00023545  ti_sysbios_knl_Semaphore_create                                      
000256dd  ti_sysbios_knl_Semaphore_delete                                      
00024951  ti_sysbios_knl_Semaphore_destruct                                    
000239c1  ti_sysbios_knl_Semaphore_pendTimeout__I                              
00009761  ti_sysbios_knl_Semaphore_pend__E                                     
000124f1  ti_sysbios_knl_Semaphore_post__E                                     
000279d4  ti_sysbios_knl_Task_A_badPriority__C                                 
000279d8  ti_sysbios_knl_Task_A_badTaskState__C                                
000279dc  ti_sysbios_knl_Task_A_badThreadType__C                               
000279e0  ti_sysbios_knl_Task_A_badTimeout__C                                  
000279e4  ti_sysbios_knl_Task_A_noPendElem__C                                  
000279e8  ti_sysbios_knl_Task_A_sleepTaskDisabled__C                           
000279ec  ti_sysbios_knl_Task_E_spOutOfBounds__C                               
000279f0  ti_sysbios_knl_Task_E_stackOverflow__C                               
0801e818  ti_sysbios_knl_Task_Instance_State_0_hookEnv__A                      
0801dde8  ti_sysbios_knl_Task_Instance_State_0_stack__A                        
00009a61  ti_sysbios_knl_Task_Instance_finalize__E                             
0000df41  ti_sysbios_knl_Task_Instance_init__E                                 
000279f4  ti_sysbios_knl_Task_LD_block__C                                      
000279f8  ti_sysbios_knl_Task_LD_exit__C                                       
000279fc  ti_sysbios_knl_Task_LD_ready__C                                      
00027a00  ti_sysbios_knl_Task_LM_sleep__C                                      
00027a04  ti_sysbios_knl_Task_LM_switch__C                                     
080209e0  ti_sysbios_knl_Task_Module_State_0_idleTask__A                       
08020180  ti_sysbios_knl_Task_Module_State_0_readyQ__A                         
00027a08  ti_sysbios_knl_Task_Module_State_inactiveQ__O                        
00027a0c  ti_sysbios_knl_Task_Module__diagsEnabled__C                          
00027a10  ti_sysbios_knl_Task_Module__diagsIncluded__C                         
00027a14  ti_sysbios_knl_Task_Module__diagsMask__C                             
00027b4c  ti_sysbios_knl_Task_Module__id__C                                    
00027b4e  ti_sysbios_knl_Task_Module__loggerDefined__C                         
00027a18  ti_sysbios_knl_Task_Module__loggerFxn2__C                            
00027a1c  ti_sysbios_knl_Task_Module__loggerFxn4__C                            
00027a20  ti_sysbios_knl_Task_Module__loggerObj__C                             
080208f0  ti_sysbios_knl_Task_Module__root__V                                  
08020444  ti_sysbios_knl_Task_Module__state__V                                 
0001ac51  ti_sysbios_knl_Task_Module_startup__E                                
00027708  ti_sysbios_knl_Task_Object__DESC__C                                  
000272c0  ti_sysbios_knl_Task_Object__PARAMS__C                                
00027a24  ti_sysbios_knl_Task_Object__count__C                                 
00025671  ti_sysbios_knl_Task_Object__get__S                                   
00027a28  ti_sysbios_knl_Task_Object__heap__C                                  
080202f0  ti_sysbios_knl_Task_Object__table__V                                 
00025185  ti_sysbios_knl_Task_Params__init__S                                  
00023fed  ti_sysbios_knl_Task_SupportProxy_Module__startupDone__S              
000256f1  ti_sysbios_knl_Task_SupportProxy_checkStack__E                       
00025701  ti_sysbios_knl_Task_SupportProxy_getStackAlignment__E                
00024851  ti_sysbios_knl_Task_SupportProxy_stackUsed__E                        
00023811  ti_sysbios_knl_Task_SupportProxy_start__E                            
00024c3c  ti_sysbios_knl_Task_SupportProxy_swap__E                             
00027a2c  ti_sysbios_knl_Task_allBlockedFunc__C                                
000224f1  ti_sysbios_knl_Task_allBlockedFunction__I                            
0001bdf1  ti_sysbios_knl_Task_blockI__E                                        
00018aa1  ti_sysbios_knl_Task_checkStacks__E                                   
00021e5d  ti_sysbios_knl_Task_create                                           
00027a30  ti_sysbios_knl_Task_defaultStackHeap__C                              
00027a34  ti_sysbios_knl_Task_defaultStackSize__C                              
00025681  ti_sysbios_knl_Task_disable__E                                       
000251a1  ti_sysbios_knl_Task_enter__I                                         
00016b41  ti_sysbios_knl_Task_exit__E                                          
000277a8  ti_sysbios_knl_Task_hooks__A                                         
00027880  ti_sysbios_knl_Task_hooks__C                                         
00027a38  ti_sysbios_knl_Task_numConstructedTasks__C                           
00012bf1  ti_sysbios_knl_Task_postInit__I                                      
00024d51  ti_sysbios_knl_Task_restoreHwi__E                                    
000157f1  ti_sysbios_knl_Task_schedule__I                                      
00025291  ti_sysbios_knl_Task_sleepTimeout__I                                  
0000d931  ti_sysbios_knl_Task_sleep__E                                         
00016f21  ti_sysbios_knl_Task_startCore__E                                     
00025811  ti_sysbios_knl_Task_startup__E                                       
00021eb1  ti_sysbios_knl_Task_stat__E                                          
0001d511  ti_sysbios_knl_Task_unblockI__E                                      
00027a3c  ti_sysbios_timers_rti_Timer_E_cannotSupport__C                       
0802083c  ti_sysbios_timers_rti_Timer_Module_State_0_device__A                 
08020964  ti_sysbios_timers_rti_Timer_Module_State_0_handles__A                
080208ac  ti_sysbios_timers_rti_Timer_Module_State_0_intFreqs__A               
00027a40  ti_sysbios_timers_rti_Timer_Module__diagsEnabled__C                  
00027a44  ti_sysbios_timers_rti_Timer_Module__diagsIncluded__C                 
00027a48  ti_sysbios_timers_rti_Timer_Module__diagsMask__C                     
00027b50  ti_sysbios_timers_rti_Timer_Module__id__C                            
000251b9  ti_sysbios_timers_rti_Timer_Module__startupDone__F                   
000251b9  ti_sysbios_timers_rti_Timer_Module__startupDone__S                   
080208bc  ti_sysbios_timers_rti_Timer_Module__state__V                         
0000d0e1  ti_sysbios_timers_rti_Timer_Module_startup__E                        
0802050c  ti_sysbios_timers_rti_Timer_Object__table__V                         
00027b52  ti_sysbios_timers_rti_Timer_continueOnSuspend__C                     
00016241  ti_sysbios_timers_rti_Timer_getFreq__E                               
00025821  ti_sysbios_timers_rti_Timer_getMaxTicks__E                           
0001e711  ti_sysbios_timers_rti_Timer_initDevice__I                            
00027a4c  ti_sysbios_timers_rti_Timer_numTimerDevices__C                       
00023c91  ti_sysbios_timers_rti_Timer_periodicStub__E                          
00027a50  ti_sysbios_timers_rti_Timer_startupNeeded__C                         
00019701  ti_sysbios_timers_rti_Timer_startup__E                               
000229a1  ti_sysbios_timers_rti_Timer_stop__E                                  
00027a54  ti_sysbios_utils_Load_LS_cpuLoad__C                                  
00027a58  ti_sysbios_utils_Load_LS_taskLoad__C                                 
080209e4  ti_sysbios_utils_Load_Module_State_0_runningTask__A                  
08020778  ti_sysbios_utils_Load_Module_State_0_taskEnv__A                      
080209e8  ti_sysbios_utils_Load_Module_State_0_taskStartTime__A                
00027a5c  ti_sysbios_utils_Load_Module_State_taskList__O                       
00027a60  ti_sysbios_utils_Load_Module__diagsEnabled__C                        
00027a64  ti_sysbios_utils_Load_Module__diagsIncluded__C                       
00027a68  ti_sysbios_utils_Load_Module__diagsMask__C                           
00027b54  ti_sysbios_utils_Load_Module__id__C                                  
00027b56  ti_sysbios_utils_Load_Module__loggerDefined__C                       
00027a6c  ti_sysbios_utils_Load_Module__loggerFxn1__C                          
00027a70  ti_sysbios_utils_Load_Module__loggerFxn4__C                          
00027a74  ti_sysbios_utils_Load_Module__loggerObj__C                           
080200e8  ti_sysbios_utils_Load_Module__state__V                               
00027b58  ti_sysbios_utils_Load_autoAddTasks__C                                
00025731  ti_sysbios_utils_Load_getCPULoad__E                                  
000185d1  ti_sysbios_utils_Load_idleFxn__E                                     
00020651  ti_sysbios_utils_Load_logCPULoad__I                                  
000181b1  ti_sysbios_utils_Load_logLoads__I                                    
00027a78  ti_sysbios_utils_Load_postUpdate__C                                  
0001ad01  ti_sysbios_utils_Load_startup__E                                     
00017011  ti_sysbios_utils_Load_taskCreateHook__E                              
0001ca11  ti_sysbios_utils_Load_taskDeleteHook__E                              
00025741  ti_sysbios_utils_Load_taskRegHook__E                                 
00021f01  ti_sysbios_utils_Load_taskSwitchHook__E                              
00020cc1  ti_sysbios_utils_Load_updateCurrentThreadTime__E                     
00027b5a  ti_sysbios_utils_Load_updateInIdle__C                                
0001a831  ti_sysbios_utils_Load_updateLoads__E                                 
00014661  ti_sysbios_utils_Load_updateThreadContexts__E                        
0001a831  ti_sysbios_utils_Load_update__E                                      
00027a7c  ti_sysbios_utils_Load_windowInMs__C                                  
00023bd5  unlink                                                               
0001dde5  vsnprintf                                                            
00023fc5  write                                                                
00027a80  xdc_runtime_Assert_E_assertFailed__C                                 
00020911  xdc_runtime_Assert_raise__I                                          
00027a84  xdc_runtime_Core_A_initializedParams__C                              
00027a88  xdc_runtime_Core_Module__diagsEnabled__C                             
00027a8c  xdc_runtime_Core_Module__diagsIncluded__C                            
00027a90  xdc_runtime_Core_Module__diagsMask__C                                
00027b5c  xdc_runtime_Core_Module__id__C                                       
00021651  xdc_runtime_Core_assignLabel__I                                      
00021fe1  xdc_runtime_Core_assignParams__I                                     
00015901  xdc_runtime_Core_constructObject__I                                  
00013cc1  xdc_runtime_Core_createObject__I                                     
0001ecf1  xdc_runtime_Core_deleteObject__I                                     
00027a94  xdc_runtime_Error_E_memory__C                                        
08020738  xdc_runtime_Error_IgnoreBlock                                        
00027a98  xdc_runtime_Error_Module__diagsEnabled__C                            
00027a9c  xdc_runtime_Error_Module__diagsIncluded__C                           
00027aa0  xdc_runtime_Error_Module__diagsMask__C                               
00027b5e  xdc_runtime_Error_Module__loggerDefined__C                           
00027aa4  xdc_runtime_Error_Module__loggerFxn8__C                              
00027aa8  xdc_runtime_Error_Module__loggerObj__C                               
080209f4  xdc_runtime_Error_Module__state__V                                   
000251d1  xdc_runtime_Error_init__E                                            
00027b60  xdc_runtime_Error_maxDepth__C                                        
00010e01  xdc_runtime_Error_policyDefault__E                                   
00027aac  xdc_runtime_Error_policyFxn__C                                       
00027ab0  xdc_runtime_Error_policy__C                                          
0001f781  xdc_runtime_Error_print__E                                           
00027ab4  xdc_runtime_Error_raiseHook__C                                       
00027ab8  xdc_runtime_IFilterLogger_Interface__BASE__C                         
00027abc  xdc_runtime_IGateProvider_Interface__BASE__C                         
00027ac0  xdc_runtime_IHeap_Interface__BASE__C                                 
00027ac4  xdc_runtime_ILogger_Interface__BASE__C                               
00027ac8  xdc_runtime_IModule_Interface__BASE__C                               
00027acc  xdc_runtime_Log_L_error__C                                           
00027ad0  xdc_runtime_LoggerBuf_E_badLevel__C                                  
000251e9  xdc_runtime_LoggerBuf_Handle__label__S                               
0801b000  xdc_runtime_LoggerBuf_Instance_State_0_entryArr__A                   
00024d71  xdc_runtime_LoggerBuf_Instance_finalize__E                           
000186a1  xdc_runtime_LoggerBuf_Instance_init__E                               
00025125  xdc_runtime_LoggerBuf_Module_GateProxy_Handle__label__S              
000256fd  xdc_runtime_LoggerBuf_Module_GateProxy_enter__E                      
0002570d  xdc_runtime_LoggerBuf_Module_GateProxy_leave__E                      
000257f1  xdc_runtime_LoggerBuf_Module_GateProxy_query__E                      
00027380  xdc_runtime_LoggerBuf_Module__FXNS__C                                
00027ad4  xdc_runtime_LoggerBuf_Module__gateObj__C                             
00027b62  xdc_runtime_LoggerBuf_Module__id__C                                  
0802096c  xdc_runtime_LoggerBuf_Module__root__V                                
0802098c  xdc_runtime_LoggerBuf_Module__state__V                               
00022541  xdc_runtime_LoggerBuf_Module_startup__E                              
00027728  xdc_runtime_LoggerBuf_Object__DESC__C                                
00027508  xdc_runtime_LoggerBuf_Object__PARAMS__C                              
00027ad8  xdc_runtime_LoggerBuf_Object__count__C                               
000221e5  xdc_runtime_LoggerBuf_Object__create__S                              
00024971  xdc_runtime_LoggerBuf_Object__delete__S                              
00025439  xdc_runtime_LoggerBuf_Object__get__S                                 
080206d0  xdc_runtime_LoggerBuf_Object__table__V                               
0002578b  xdc_runtime_LoggerBuf_TimestampProxy_get32__E                        
00023511  xdc_runtime_LoggerBuf_TimestampProxy_get64__E                        
000255b1  xdc_runtime_LoggerBuf_TimestampProxy_getFreq__E                      
00025771  xdc_runtime_LoggerBuf_disable__E                                     
00025781  xdc_runtime_LoggerBuf_enable__E                                      
00027b64  xdc_runtime_LoggerBuf_filterByLevel__C                               
0001d5a1  xdc_runtime_LoggerBuf_getFilterLevel__E                              
0001a1f1  xdc_runtime_LoggerBuf_setFilterLevel__E                              
00027adc  xdc_runtime_LoggerBuf_statusLogger__C                                
00025691  xdc_runtime_LoggerBuf_write0__E                                      
000254f1  xdc_runtime_LoggerBuf_write1__E                                      
00025511  xdc_runtime_LoggerBuf_write2__E                                      
00014c21  xdc_runtime_LoggerBuf_write4__E                                      
00011c01  xdc_runtime_LoggerBuf_write8__E                                      
00025125  xdc_runtime_Main_Module_GateProxy_Handle__label__S                   
000257f1  xdc_runtime_Main_Module_GateProxy_query__E                           
00027ae0  xdc_runtime_Main_Module__diagsEnabled__C                             
00027ae4  xdc_runtime_Main_Module__diagsIncluded__C                            
00027ae8  xdc_runtime_Main_Module__diagsMask__C                                
00027b66  xdc_runtime_Main_Module__id__C                                       
00027b68  xdc_runtime_Main_Module__loggerDefined__C                            
00027aec  xdc_runtime_Main_Module__loggerFxn1__C                               
00027af0  xdc_runtime_Main_Module__loggerFxn2__C                               
00027af4  xdc_runtime_Main_Module__loggerFxn4__C                               
00027af8  xdc_runtime_Main_Module__loggerObj__C                                
080209f6  xdc_runtime_Main_Module__root__V                                     
00025155  xdc_runtime_Memory_HeapProxy_Handle__label__S                        
00024845  xdc_runtime_Memory_HeapProxy_alloc__E                                
00025287  xdc_runtime_Memory_HeapProxy_free__E                                 
000255a5  xdc_runtime_Memory_HeapProxy_getStats__E                             
00027b6a  xdc_runtime_Memory_Module__id__C                                     
080209f0  xdc_runtime_Memory_Module__state__V                                  
0001dbc1  xdc_runtime_Memory_alloc__E                                          
00027afc  xdc_runtime_Memory_defaultHeapInstance__C                            
000256a1  xdc_runtime_Memory_free__E                                           
000256b1  xdc_runtime_Memory_getStats__E                                       
08020974  xdc_runtime_Registry_Module__state__V                                
0802097c  xdc_runtime_Startup_Module__state__V                                 
00000001  xdc_runtime_Startup__EXECFXN__C                                      
00000001  xdc_runtime_Startup__RESETFXN__C                                     
00027b00  xdc_runtime_Startup_execImpl__C                                      
000206c1  xdc_runtime_Startup_exec__E                                          
00025523  xdc_runtime_Startup_exec__I                                          
00027888  xdc_runtime_Startup_firstFxns__A                                     
00027890  xdc_runtime_Startup_firstFxns__C                                     
00027898  xdc_runtime_Startup_lastFxns__C                                      
00027b04  xdc_runtime_Startup_maxPasses__C                                     
0000f093  xdc_runtime_Startup_reset__I                                         
00025751  xdc_runtime_Startup_rtsDone__E                                       
000277c0  xdc_runtime_Startup_sfxnRts__A                                       
00027b08  xdc_runtime_Startup_sfxnRts__C                                       
00027488  xdc_runtime_Startup_sfxnTab__A                                       
00027b0c  xdc_runtime_Startup_sfxnTab__C                                       
00014071  xdc_runtime_Startup_startMods__I                                     
00024021  xdc_runtime_SysStd_abort__E                                          
00025761  xdc_runtime_SysStd_exit__E                                           
00025831  xdc_runtime_SysStd_putch__E                                          
00025841  xdc_runtime_SysStd_ready__E                                          
00025125  xdc_runtime_System_Module_GateProxy_Handle__label__S                 
0002571d  xdc_runtime_System_Module_GateProxy_enter__E                         
0002572d  xdc_runtime_System_Module_GateProxy_leave__E                         
000257f1  xdc_runtime_System_Module_GateProxy_query__E                         
08020758  xdc_runtime_System_Module_State_0_atexitHandlers__A                  
00027b10  xdc_runtime_System_Module__gateObj__C                                
08020984  xdc_runtime_System_Module__state__V                                  
000257e1  xdc_runtime_System_Module_startup__E                                 
00024021  xdc_runtime_System_SupportProxy_abort__E                             
00025761  xdc_runtime_System_SupportProxy_exit__E                              
00025831  xdc_runtime_System_SupportProxy_putch__E                             
00025841  xdc_runtime_System_SupportProxy_ready__E                             
00027b14  xdc_runtime_System_abortFxn__C                                       
00021a6d  xdc_runtime_System_abortStd__E                                       
00024ef9  xdc_runtime_System_aprintf__E                                        
00024051  xdc_runtime_System_aprintf_va__F                                     
00022591  xdc_runtime_System_atexit__E                                         
00005e91  xdc_runtime_System_doPrint__I                                        
00027b18  xdc_runtime_System_exitFxn__C                                        
00021a75  xdc_runtime_System_exitStd__E                                        
00021b11  xdc_runtime_System_exit__E                                           
00027b1c  xdc_runtime_System_extendFxn__C                                      
00027b20  xdc_runtime_System_maxAtexitHandlers__C                              
00016d35  xdc_runtime_System_printfExtend__I                                   
00024f13  xdc_runtime_System_printf__E                                         
00024301  xdc_runtime_System_printf_va__F                                      
00027b6c  xdc_runtime_Text_charCnt__C                                          
00027021  xdc_runtime_Text_charTab__A                                          
00027b24  xdc_runtime_Text_charTab__C                                          
00027b6e  xdc_runtime_Text_isLoaded__C                                         
00027b28  xdc_runtime_Text_nameEmpty__C                                        
00027b2c  xdc_runtime_Text_nameStatic__C                                       
00027b30  xdc_runtime_Text_nameUnknown__C                                      
00023931  xdc_runtime_Text_printVisFxn__I                                      
00020971  xdc_runtime_Text_putLab__E                                           
0001a8e1  xdc_runtime_Text_putMod__E                                           
0001bb61  xdc_runtime_Text_putSite__E                                          
00027b70  xdc_runtime_Text_registryModsLastId__C                               
00027b72  xdc_runtime_Text_unnamedModsLastId__C                                
00027b34  xdc_runtime_Text_visitRopeFxn__C                                     
0001a829  xdc_runtime_Text_visitRope__I                                        
00022031  xdc_runtime_Text_xprintf__I                                          
0002578b  xdc_runtime_Timestamp_SupportProxy_get32__E                          
00023511  xdc_runtime_Timestamp_SupportProxy_get64__E                          
000255b1  xdc_runtime_Timestamp_SupportProxy_getFreq__E                        
0002578b  xdc_runtime_Timestamp_get32__E                                       
00023511  xdc_runtime_Timestamp_get64__E                                       
000255b1  xdc_runtime_Timestamp_getFreq__E                                     


GLOBAL SYMBOLS: SORTED BY Symbol Address 

address   name                                                                 
-------   ----                                                                 
00000000  __ASM__                                                              
00000000  ti_sysbios_family_arm_v7r_vim_Hwi_vectors                            
00000001  xdc_runtime_Startup__EXECFXN__C                                      
00000001  xdc_runtime_Startup__RESETFXN__C                                     
00000069  __ISA__                                                              
0000007b  __PLAT__                                                             
0000009f  __TARG__                                                             
000000c6  __TRDR__                                                             
00000800  __STACK_SIZE                                                         
000008c5  __TI_printfi                                                         
0000117b  ADCBUF_MMWave_init                                                   
0000117d  gtrack_unitUpdate                                                    
000027b1  MmwDemo_CLIInit                                                      
0000307f  HWA_init                                                             
00003701  HWA_configParamSet                                                   
00003d59  __kernel_rem_pio2                                                    
00004929  powf                                                                 
00004eb9  DPU_RangeProcHWA_process                                             
00005975  gtrack_create                                                        
00005e8d  HwiP_disableInterrupt                                                
00005e91  xdc_runtime_System_doPrint__I                                        
00006375  ADCBUF_MMWave_control                                                
0000681d  gtrack_velocityStateHandling                                         
00006c83  QSPIFlash_init                                                       
000070d1  DPU_RangeProcHWA_config                                              
00007d59  cos                                                                  
00007d59  cosl                                                                 
000084d5  gtrack_matrixInv                                                     
00008807  QSPI_init                                                            
00008b31  SOC_deviceInit                                                       
00008e99  tanf                                                                 
0000945d  CBUFF_createSession                                                  
00009755  EDMA3ChannelToParamMap                                               
00009761  ti_sysbios_knl_Semaphore_pend__E                                     
00009a55  EDMAsetRegion                                                        
00009a61  ti_sysbios_knl_Task_Instance_finalize__E                             
00009ff5  HWA_configCommon                                                     
0000a2b8  __aeabi_uldivmod                                                     
0000a819  HwiP_disable                                                         
0000a821  ti_sysbios_heaps_HeapMem_freeUnprotected__E                          
0000ad4d  MmwDemo_LVDSStreamHwConfig                                           
0000afd5  MMWave_deviceExecuteFxn                                              
0000b259  HSIHeader_createHeader                                               
0000b4d9  MMWave_decodeErrorLevel                                              
0000b4e1  ti_sysbios_family_arm_exc_Exception_excDumpContext__I                
0000b761  QSPIFlash_open                                                       
0000b9cd  CBUFF_init                                                           
0000bc31  MmwDemo_openSensor                                                   
0000be95  Mailbox_open                                                         
0000c355  gtrack_moduleAllocate                                                
0000c805  MmwDemo_stopSensor                                                   
0000ca55  CBUFF_openLVDS                                                       
0000cead  HwiP_enableInterrupt                                                 
0000ceb1  ti_sysbios_heaps_HeapMem_allocUnprotected__E                         
0000d0e1  ti_sysbios_timers_rti_Timer_Module_startup__E                        
0000d723  __aeabi_idiv0                                                        
0000d929  MemoryP_getStats                                                     
0000d931  ti_sysbios_knl_Task_sleep__E                                         
0000db35  CRC_open                                                             
0000dd35  MmwDemo_startSensor                                                  
0000df41  ti_sysbios_knl_Task_Instance_init__E                                 
0000e141  gtrack_step                                                          
0000e33d  gtrack_unitPredict                                                   
0000e537  ti_sysbios_BIOS_nullFunc__I                                          
0000e539  DMA_setChannelParams                                                 
0000e729  MmwDemo_transferLVDSUserData                                         
0000e911  gtrack_computeJacobian                                               
0000eaf5  logf                                                                 
0000ecd9  strtod                                                               
0000ecd9  strtold                                                              
0000eebd  gtrack_unitScore                                                     
0000f093  xdc_runtime_Startup_reset__I                                         
0000f095  CBUFF_configEDMA                                                     
0000f439  main                                                                 
0000f605  MMWave_osalMutexUnlock                                               
0000f611  ti_sysbios_family_arm_v7r_vim_Hwi_dispatchIRQC__I                    
0000f7dd  CBUFF_initLVDS                                                       
0000f9a5  rlDriverRxHdrRead                                                    
0000fc37  __TI_cleanup                                                         
0000fc63  freopen                                                              
0000fc8d  fopen                                                                
0000fef9  EDMA_open                                                            
000100b9  MmwDemo_LVDSStreamInit                                               
00010269  rlDriverMsgRead                                                      
00010419  gtrack_unitStart                                                     
000105c5  MmwDemo_bpmConfig                                                    
0001076d  CBUFF_activateSession                                                
00010c59  MmwDemo_CLITrackingCfg                                               
00010df5  MMWave_osalSemSignal                                                 
00010e01  xdc_runtime_Error_policyDefault__E                                   
00010f9d  gtrack_unitEvent                                                     
00011139  MMWave_openLink                                                      
000112cd  rlDriverCmdInvoke                                                    
0001145d  DPU_TrackerProc_process                                              
000115e5  EDMA_configChannel                                                   
0001176d  HWA_open                                                             
000118f5  MmwDemo_LVDSStreamDeleteHwSession                                    
00011a7d  DPU_TrackerProc_config                                               
00011c01  xdc_runtime_LoggerBuf_write8__E                                      
00011d85  DPM_init                                                             
00011f05  DPM_msgRecv                                                          
00012205  MmwDemo_LVDSStreamDeleteSwSession                                    
00012381  GPIO_setConfig                                                       
000124f1  ti_sysbios_knl_Semaphore_post__E                                     
00012661  ti_sysbios_family_arm_exc_Exception_excHandler__I                    
000127c9  MmwDemo_LVDSStreamSwConfig                                           
0001292d  QSPI_open                                                            
00012a91  ti_sysbios_family_arm_v7r_vim_Hwi_reconfig__E                        
00012bf1  ti_sysbios_knl_Task_postInit__I                                      
00012d49  atanf                                                                
00013519  HSIHeader_init                                                       
000137a9  rlDriverCmdSendRetry                                                 
000138f1  MmwDemo_configLVDSHwData                                             
00013a35  MmwDemo_configSensor                                                 
00013b79  SemaphoreP_Params_init                                               
00013b81  ti_sysbios_heaps_HeapMem_Instance_init__E                            
00013cc1  xdc_runtime_Core_createObject__I                                     
00013e01  ti_sysbios_knl_Clock_workFunc__E                                     
00013f3d  ADCBUF_MMWave_open                                                   
00014071  xdc_runtime_Startup_startMods__I                                     
000141a5  gtrack_cartesian2spherical                                           
0001452d  mathUtils_genWindow                                                  
00014655  UART_Params_init                                                     
00014661  ti_sysbios_utils_Load_updateThreadContexts__E                        
000149d1  EDMA_init                                                            
00014af5  init_qspiflash                                                       
00014c19  gtrack_unitDelete                                                    
00014c21  xdc_runtime_LoggerBuf_write4__E                                      
00014d41  ti_sysbios_family_arm_v7r_vim_Hwi_Instance_init__E                   
00014f71  EDMA_configErrorMonitoring                                           
000153b9  DPEDMA_configSyncAB                                                  
000156dd  MMWave_deviceInitFxn                                                 
000157f1  ti_sysbios_knl_Task_schedule__I                                      
000158fd  MMWave_listGetHead                                                   
00015901  xdc_runtime_Core_constructObject__I                                  
00015a0d  DMA_disableInterrupt                                                 
00015b15  Mailbox_write                                                        
00015d25  CBUFF_deinit                                                         
00015e29  DPEDMA_configSyncA_singleFrame                                       
00015f2d  MMWave_startLink                                                     
00016239  rlDriverConstructOutMsg                                              
00016241  ti_sysbios_timers_rti_Timer_getFreq__E                               
00016445  DMA_clearChannelInterruptFlag                                        
00016545  gtrack_spherical2cartesian                                           
00016645  rlDriverInit                                                         
00016745  CBUFF_deleteSession                                                  
00016841  CRC_computeSignature                                                 
00016b35  UartSci_isDMAEnabled                                                 
00016b41  ti_sysbios_knl_Task_exit__E                                          
00016c3d  rlDriverRdVerifyMsg                                                  
00016d35  xdc_runtime_System_printfExtend__I                                   
00016e2d  MMWave_listGetNext                                                   
00016e31  ti_sysbios_family_arm_v7r_vim_Hwi_Module_startup__E                  
00016f21  ti_sysbios_knl_Task_startCore__E                                     
00017011  ti_sysbios_utils_Load_taskCreateHook__E                              
000171f1  ldexp                                                                
000171f1  ldexpl                                                               
000171f1  scalbn                                                               
000171f1  scalbnl                                                              
000172e1  ti_sysbios_heaps_HeapBuf_Module_startup__E                           
000173cd  DPEDMAHWA_configTwoHotSignature                                      
000175a1  rlRfPhShiftCalibDataRestore                                          
00017769  CLI_open                                                             
00017849  DMA_enableInterrupt                                                  
00017929  gtrack_unitCreate                                                    
00017a09  floor                                                                
00017a09  floorl                                                               
00017ae9  MMWave_init                                                          
00017bc5  rlDriverMsgCmdReply                                                  
00017ca1  setvbuf                                                              
00017e59  Mailbox_read                                                         
00018001  rlSetMultiBpmChirpConfig                                             
000180d5  ldexpf                                                               
000180d5  scalbnf                                                              
000181a9  rlDriverGetHandle                                                    
000181b1  ti_sysbios_utils_Load_logLoads__I                                    
00018285  gtrack_matrixPrint2                                                  
00018359  DPU_RangeProcHWA_control                                             
00018429  SOC_controlSecureFirewall                                            
000184f8  ti_sysbios_family_arm_exc_Exception_excHandlerAsm__I                 
00018560  ti_sysbios_family_arm_exc_Exception_excHandlerDataAsm__I             
000185c8  ti_sysbios_family_arm_v7a_Pmu_getEnabled__E                          
000185d1  ti_sysbios_utils_Load_idleFxn__E                                     
000186a1  xdc_runtime_LoggerBuf_Instance_init__E                               
00018771  HWA_enableParamSetInterrupt                                          
0001883d  rlRfCalibDataRestore                                                 
00018909  rlSetChirpConfig                                                     
000189d5  __TI_doflush                                                         
00018a21  fflush                                                               
00018aa1  ti_sysbios_knl_Task_checkStacks__E                                   
00018b6d  MMWave_addChirp                                                      
00018c35  MMWave_configBPM                                                     
00018cfd  MMWave_flushCfg                                                      
00018dc5  MMWave_getChirpHandle                                                
00018f55  SOC_ungateClock                                                      
0001901d  rlSetFrameConfig                                                     
000190e5  CBUFF_setupNonInterleaved_CP_ADC_CQ                                  
000191a9  DPM_deinit                                                           
0001926d  DPM_ioctl                                                            
00019331  ti_sysbios_family_arm_v7a_Pmu_configureCounter__E                    
000193f5  DPU_RangeProcHWA_init                                                
00019575  MmwDemo_isAllCfgInPendingState                                       
00019635  rlDriverMsgWrite                                                     
000196f4  ti_sysbios_family_arm_IntrinsicsSupport_maxbitA__I                   
000196f4  ti_sysbios_family_arm_IntrinsicsSupport_maxbit__E                    
000196f4  ti_sysbios_knl_Intrinsics_SupportProxy_maxbit__E                     
000196f4  ti_sysbios_knl_Intrinsics_maxbit__E                                  
00019701  ti_sysbios_knl_Clock_TimerProxy_startup__E                           
00019701  ti_sysbios_timers_rti_Timer_startup__E                               
0001987d  GPIO_write                                                           
000199f5  MmwDemo_LVDSStream_EDMAInit                                          
00019ab1  open                                                                 
00019c25  CBUFF_setupTransfer                                                  
00019cdd  DMA_getChannelInterruptFlag                                          
00019fbd  __kernel_cos                                                         
0001a075  SOC_MPUEnable                                                        
0001a093  SOC_MPUDisable                                                       
0001a0b1  SOC_MPUEnableBackgroundRegion                                        
0001a0c7  SOC_MPUDisableBackgroundRegion                                       
0001a0dd  SOC_MPUGetNumberOfRegions                                            
0001a0e7  SOC_MPUAreRegionsSeparate                                            
0001a0ef  SOC_MPUSetRegion                                                     
0001a0f5  SOC_MPUGetRegion                                                     
0001a0fb  SOC_MPUSetRegionBaseAddress                                          
0001a101  SOC_MPUGetRegionBaseAddress                                          
0001a107  SOC_MPUSetRegionTypeAndPermission                                    
0001a111  SOC_MPUGetRegionType                                                 
0001a11b  SOC_MPUGetRegionPermission                                           
0001a125  SOC_MPUSetRegionSizeRegister                                         
0001a12b  CycleprofilerP_getTimeStamp                                          
0001a131  ti_sysbios_gates_GateMutex_enter__E                                  
0001a1e5  __TI_zero_init                                                       
0001a1f1  xdc_runtime_LoggerBuf_setFilterLevel__E                              
0001a2a5  UartSci_openDMA                                                      
0001a359  CBUFF_deactivateSession                                              
0001a409  MMWave_addProfile                                                    
0001a4b9  MmwDemo_CLIBoundaryBoxCfg                                            
0001a569  MmwDemo_CLIStaticBoundaryBoxCfg                                      
0001a619  MmwDemo_isAllCfgInNonPendingState                                    
0001a6c9  gtrack_calcMeasurementLimits                                         
0001a779  rlSetProfileConfig                                                   
0001a829  xdc_runtime_Text_visitRope__I                                        
0001a831  ti_sysbios_utils_Load_updateLoads__E                                 
0001a831  ti_sysbios_utils_Load_update__E                                      
0001a8e1  xdc_runtime_Text_putMod__E                                           
0001a991  MmwDemo_ADCBufConfig                                                 
0001aa3f  __TI_wrt_ok                                                          
0001aaa3  __TI_rd_ok                                                           
0001aaed  ESM_processInterrupt                                                 
0001ac45  rlDriverGetPlatformId                                                
0001ac51  ti_sysbios_knl_Task_Module_startup__E                                
0001ad01  ti_sysbios_utils_Load_startup__E                                     
0001ae59  ADCBUF_MMWave_getChanBufAddr                                         
0001af01  CLI_MMWaveExtensionHelp                                              
0001afa9  EDMA3Init                                                            
0001b0f9  MMWave_getBpmChirpHandle                                             
0001b1a1  MmwDemo_CLIAllocationParamCfg                                        
0001b399  Pinmux_Set_OverrideCtrl                                              
0001b441  SOC_deregisterSysIntListener                                         
0001b4e9  gtrack_delete                                                        
0001b591  rlDriverWaitForResponse                                              
0001b639  rlSetAdvFrameConfig                                                  
0001b6e1  gtrack_computeMahalanobis                                            
0001b789  DMA_assignChannel                                                    
0001b82d  ESM_init                                                             
0001b8d1  MMWave_addBpmChirp                                                   
0001b975  MMWave_start                                                         
0001babd  __kernel_sin                                                         
0001bb61  xdc_runtime_Text_putSite__E                                          
0001bca5  SOC_registerSysIntListener                                           
0001bd45  __TI_auto_init                                                       
0001bde4  ti_sysbios_family_arm_v7a_Pmu_configureCounterI__I                   
0001bdf1  ti_sysbios_knl_Task_blockI__E                                        
0001be91  MMWave_configLink                                                    
0001bf2d  MMWave_getProfileHandle                                              
0001bfc9  MmwDemo_CLIGatingParamCfg                                            
0001c239  gtrack_unitStop                                                      
0001c2d5  __aeabi_memcpy                                                       
0001c2d5  __aeabi_memcpy4                                                      
0001c2d5  __aeabi_memcpy8                                                      
0001c2d5  memcpy                                                               
0001c371  ti_sysbios_family_arm_v7r_vim_Hwi_initIntController__I               
0001c411  ti_sysbios_family_arm_v7r_vim_Hwi_mapChannel__I                      
0001c4b1  ti_sysbios_knl_Semaphore_Instance_init__E                            
0001c5e7  gtrack_matrixMakeSymmetrical                                         
0001c681  MMWave_getChirpCfg                                                   
0001c7b1  MmwDemo_RFParser_parseConfig                                         
0001c849  __TI_closefile                                                       
0001c8af  fclose                                                               
0001c8e1  fputc                                                                
0001c8e1  putc                                                                 
0001c967  putchar                                                              
0001c978  ti_sysbios_family_xxx_Hwi_switchAndRunFunc                           
0001c9c4  ti_sysbios_family_xxx_Hwi_switchAndRunDispatchC                      
0001ca11  ti_sysbios_utils_Load_taskDeleteHook__E                              
0001cb3f  HWA_configRam                                                        
0001cc6b  CBUFF_setupNonInterleaved_ADC                                        
0001ce29  SOC_gateClock                                                        
0001cebd  gtrack_calcDistance                                                  
0001cf51  gtrack_matrixCovFilter                                               
0001cfe5  rlDriverDeInit                                                       
0001d079  rlDriverMsgReadCmdCtx                                                
0001d10d  rlDriverProcRdMsg                                                    
0001d1a0  ti_sysbios_family_arm_v7r_vim_Hwi_dispatchIRQ__I                     
0001d235  GPIO_init                                                            
0001d2c5  Mailbox_close                                                        
0001d355  UartSci_initiateTxDMA                                                
0001d474  ti_sysbios_family_arm_v7a_Pmu_getCountI__E                           
0001d481  ti_sysbios_family_arm_v7a_Pmu_startCounter__E                        
0001d511  ti_sysbios_knl_Task_unblockI__E                                      
0001d5a1  xdc_runtime_LoggerBuf_getFilterLevel__E                              
0001d631  gtrack_matrixComputePJT                                              
0001d74d  SOC_init                                                             
0001d7d9  SOC_translateAddress                                                 
0001d865  UartSci_initiateRxDMA                                                
0001d8f1  gtrack_matrixMultiply                                                
0001d97d  rlDevicePowerOn                                                      
0001da09  rlDriverMsgReadSpawnCtx                                              
0001da95  ti_sysbios_knl_Queue_Object__get__S                                  
0001daa1  ti_sysbios_family_arm_v7a_Pmu_getCount__E                            
0001db31  ti_sysbios_family_arm_v7r_vim_Hwi_Instance_finalize__E               
0001dbbd  MmwDemo_sleep                                                        
0001dbc1  xdc_runtime_Memory_alloc__E                                          
0001dc4d  HWA_disableParamSetInterrupt                                         
0001dcd5  MMWave_getProfileCfg                                                 
0001dd5d  gtrack_matrixTransposeMultiply                                       
0001dde5  vsnprintf                                                            
0001de6d  CBUFF_closeEDMA                                                      
0001def5  MMWave_deviceCfgAsyncEvent                                           
0001df79  MMWave_deviceEventFxn                                                
0001dffd  MMWave_getNumBpmChirp                                                
0001e081  MMWave_open                                                          
0001e105  gtrack_sincosd                                                       
0001e391  MMWave_getBpmChirpCfg                                                
0001e491  SOC_getDeviceRFFreqScaleFactor                                       
0001e591  gtrack_moduleUpdate                                                  
0001e611  gtrack_sph2cart                                                      
0001e691  rlDriverExecuteGetApi                                                
0001e711  ti_sysbios_timers_rti_Timer_initDevice__I                            
0001e791  HwiP_create                                                          
0001e811  gtrack_matrixPrint                                                   
0001e891  CBUFF_initLVDSLinkListParams                                         
0001e911  DPM_pipeSend                                                         
0001ea09  MMWave_deviceOpenFxn                                                 
0001ea85  Mailbox_init                                                         
0001eb01  MmwDemoCLIMaxAccelerationParamCfg                                    
0001eb7d  MmwDemo_CLIStateParamCfg                                             
0001ec74  ti_sysbios_family_arm_TaskSupport_buildTaskStack                     
0001ecf1  xdc_runtime_Core_deleteObject__I                                     
0001ede9  gtrack_matrixCovAcc                                                  
0001ee63  __aeabi_memclr                                                       
0001ee63  __aeabi_memclr4                                                      
0001ee63  __aeabi_memclr8                                                      
0001ee65  __aeabi_memset                                                       
0001ee65  __aeabi_memset4                                                      
0001ee65  __aeabi_memset8                                                      
0001ee6b  memset                                                               
0001eedd  ADCBUF_MMWave_getCQBufAddr                                           
0001efcd  CBUFF_setVC                                                          
0001f0bd  EDMA_configParamSet                                                  
0001f135  MMWave_getNumChirps                                                  
0001f1ad  QSPI_cfgRead                                                         
0001f225  MMWave_config                                                        
0001f299  MMWave_deviceStartFxn                                                
0001f30c  _c_int00                                                             
0001f381  rlDriverAsyncEventHandler                                            
0001f3f5  finddevice                                                           
0001f423  getdevice                                                            
0001f469  frexp                                                                
0001f469  frexpl                                                               
0001f4dd  gtrack_listRemoveElement                                             
0001f5c1  HSIHeader_deleteHeader                                               
0001f6a1  MMWave_deviceCfgFxn                                                  
0001f781  xdc_runtime_Error_print__E                                           
0001f7f1  DMA_disableChannel                                                   
0001f85d  DMA_enableChannel                                                    
0001f8c9  DPM_relayResult                                                      
0001f9a1  MMWave_stopLink                                                      
0001fa0d  Pinmux_Set_FuncSel                                                   
0001fae5  QSPI_cfgWrite                                                        
0001fb51  __TI_decompress_lzss                                                 
0001fbbd  gtrack_matrixCovNormalize                                            
0001fc29  __TI_writemsg                                                        
0001fc5b  C$$IO$$                                                              
0001fc5f  __TI_readmsg                                                         
0001fd69  MMWave_deviceStopFxn                                                 
0001fdd1  Mailbox_readFlush                                                    
0001fea1  gtrack_isPointInsideBox                                              
0001ffd9  rlDriverExecuteSetApi                                                
00020041  rlDriverHostIrqHandler                                               
000200a9  HOSTlseek                                                            
00020111  HOSTrename                                                           
00020179  gtrack_computeMahalanobisPartial                                     
000201df  rlDevicePowerOff                                                     
000202a9  DPU_trackerProc_updateParamTables                                    
00020371  HWA_getDMAChanIndex                                                  
000203d5  SemaphoreP_create                                                    
00020439  fseek                                                                
0002049d  sprintf                                                              
00020500  ti_sysbios_family_arm_exc_Exception_initCore0__I                     
00020565  ADCBuf_control                                                       
00020571  ti_sysbios_family_arm_v7r_vim_Hwi_phantomIntHandler__I               
000205d5  ADCBuf_getChanBufAddr                                                
000205e1  ti_sysbios_knl_Clock_logTick__E                                      
00020645  CBUFF_deinitLVDS                                                     
00020651  ti_sysbios_utils_Load_logCPULoad__I                                  
000206c1  xdc_runtime_Startup_exec__E                                          
00020789  CLI_MMWaveExtensionHandler                                           
000207e9  DebugP_log2                                                          
00020849  DebugP_log3                                                          
000208b1  ti_sysbios_heaps_HeapMem_alloc__E                                    
00020911  xdc_runtime_Assert_raise__I                                          
00020971  xdc_runtime_Text_putLab__E                                           
00020a2f  gtrack_unrollRadialVelocity                                          
00020ae9  MMWave_stop                                                          
00020ba1  SOC_enableLVDS                                                       
00020bfd  HOSTopen                                                             
00020c59  HOSTread                                                             
00020cc1  ti_sysbios_utils_Load_updateCurrentThreadTime__E                     
00020d77  rlDriverCalChkSum                                                    
00020dd1  DPM_execute                                                          
00020e81  DebugP_log0                                                          
00020ed9  DebugP_log1                                                          
00020f31  EDMA3EnableChInShadowReg                                             
00020f89  ESM_highpriority_FIQ                                                 
00020fe1  HWA_getDMAconfig                                                     
00021039  MMWave_execute                                                       
00021141  UartSci_closeDMA                                                     
00021199  gtrack_isPointBehindTarget                                           
000211f1  close                                                                
00021249  HOSTwrite                                                            
000212f9  CRC_getTransactionId                                                 
0002134d  DMA_freeChannel                                                      
000213f5  MMWave_initLink                                                      
00021449  MmwDemo_CfgUpdate                                                    
0002149d  MmwDemo_resetStaticCfgPendingState                                   
000214f1  QSPIFlash_writeEnable                                                
00021545  ltoa                                                                 
00021599  ti_sysbios_family_arm_v7r_vim_Hwi_create                             
000215ed  gtrack_listGetCount                                                  
000215f1  ti_sysbios_heaps_HeapMem_getStats__E                                 
00021645  MemoryP_ctrlFree                                                     
00021651  xdc_runtime_Core_assignLabel__I                                      
000216a5  DPEDMA_setup_shadow_link                                             
000216f7  gtrack_calcDim                                                       
00021749  CRC_getSignature                                                     
00021799  DPM_synch                                                            
000217e9  EDMA3MapChToEvtQ                                                     
00021839  MMWave_sync                                                          
000218d9  gtrack_modulePredict                                                 
00021979  rlDeviceIdentifyCmdDir                                               
000219c9  rlDriverVerifyCRC                                                    
00021a19  atoi                                                                 
00021a69  C$$EXIT                                                              
00021a6d  abort                                                                
00021a6d  xdc_runtime_System_abortStd__E                                       
00021a75  exit                                                                 
00021a75  xdc_runtime_System_exitStd__E                                        
00021ab8  __aeabi_uidiv                                                        
00021ab8  __aeabi_uidivmod                                                     
00021b11  xdc_runtime_System_exit__E                                           
00021b61  CLI_write                                                            
00021bad  EDMA_disableChannel                                                  
00021bf9  EDMA_enableChannel                                                   
00021c45  HWA_enableDoneInterrupt                                              
00021d75  gtrack_unitReport                                                    
00021dc1  copy_in                                                              
00021e0d  gtrack_listGetFirst                                                  
00021e11  ti_sysbios_family_arm_v7r_vim_Hwi_getStackInfo__E                    
00021e11  ti_sysbios_hal_Hwi_HwiProxy_getStackInfo__E                          
00021e11  ti_sysbios_hal_Hwi_getStackInfo__E                                   
00021e5d  ti_sysbios_knl_Task_create                                           
00021ea9  EDMA3ClrCCErr                                                        
00021eb1  ti_sysbios_knl_Task_stat__E                                          
00021efd  gtrack_listGetNext                                                   
00021f01  ti_sysbios_utils_Load_taskSwitchHook__E                              
00021fe1  xdc_runtime_Core_assignParams__I                                     
0002202b  EDMA3ErrIntrHighStatusGet                                            
00022031  xdc_runtime_Text_xprintf__I                                          
0002207b  CBUFF_setup_USER                                                     
000220c3  DPM_pipeRecv                                                         
00022155  rlDeviceGetVersion                                                   
0002219d  rlDriverOsiInit                                                      
000221e5  xdc_runtime_LoggerBuf_Object__create__S                              
00022275  ADCBUF_MMWave_close                                                  
000222fd  DPM_start                                                            
00022341  DPM_stop                                                             
000223c9  SOC_resetDMA                                                         
0002240d  HOSTclose                                                            
00022451  HOSTunlink                                                           
00022495  SemaphoreP_post                                                      
00022495  SemaphoreP_postFromClock                                             
00022495  SemaphoreP_postFromISR                                               
000224a1  ti_sysbios_family_arm_v7r_tms570_Core_Module_startup__E              
000224e5  UART_read                                                            
000224f1  ti_sysbios_knl_Task_allBlockedFunction__I                            
00022535  UART_write                                                           
00022541  xdc_runtime_LoggerBuf_Module_startup__E                              
00022585  UART_writePolling                                                    
00022591  xdc_runtime_System_atexit__E                                         
000225d5  CBUFF_closeLVDS                                                      
00022659  HWA_reset                                                            
0002269b  MMWave_executeLink                                                   
000226dd  gtrack_moduleAssociate                                               
0002271f  rlGetSubBlock                                                        
00022761  EDMA_linkParamSets                                                   
000227a1  HWA_getHWAMemInfo                                                    
000228a1  gtrack_matrixSetDiag                                                 
000228e1  gtrack_moduleReport                                                  
00022921  rlDriverValidateHdr                                                  
00022961  strtok                                                               
000229a1  ti_sysbios_timers_rti_Timer_stop__E                                  
00022d45  HWA_enable                                                           
00022d83  MMWave_decodeError                                                   
00022dff  mmwDemo_cfgAnalogMonitor                                             
00022eb5  EDMA_chainChannels                                                   
00022ef1  Mailbox_writeReset                                                   
00022f2d  SOC_isSecureDevice                                                   
00022f69  SOC_unhaltBSS                                                        
00022fa4  ti_sysbios_family_arm_v7r_vim_Hwi_init__I                            
00022fe1  ti_sysbios_hal_Hwi_checkStack                                        
0002301d  ti_sysbios_BIOS_RtsGateProxy_enter__E                                
00023021  ti_sysbios_heaps_HeapMem_init__I                                     
0002305d  HWA_setDMA2ACCManualTrig                                             
00023099  HwiP_delete                                                          
00023145  CLI_MMWaveExtensionInit                                              
000231b5  DPM_notifyExecute                                                    
000231ed  EDMA3ClrMissEvt                                                      
00023225  UART_init                                                            
0002325d  rlAppendSubBlock                                                     
00023293  strncpy                                                              
000232c9  __aeabi_ul2f                                                         
00023301  ADCBuf_open                                                          
00023369  HWA_disableDoneInterrupt                                             
000233d1  SOC_enableHWA                                                        
00023405  SOC_hasDSPCore                                                       
00023439  SOC_setMMWaveDSSLinkState                                            
0002346d  SOC_setMMWaveMSSLinkState                                            
000234a1  SOC_setMSSLinkState                                                  
000234d5  UART_open                                                            
00023509  EDMA3GetCCErrStatus                                                  
00023511  ti_sysbios_family_arm_a15_TimestampProvider_get64__E                 
00023511  xdc_runtime_LoggerBuf_TimestampProxy_get64__E                        
00023511  xdc_runtime_Timestamp_SupportProxy_get64__E                          
00023511  xdc_runtime_Timestamp_get64__E                                       
00023545  ti_sysbios_knl_Semaphore_create                                      
00023643  SOC_microDelay                                                       
00023651  ti_sysbios_hal_Hwi_initStack                                         
00023685  ADCBuf_init                                                          
000236e5  MMWave_listRemoveNode                                                
00023715  SOC_getDevicePartNumber                                              
00023745  gtrack_matrixAdd                                                     
00023775  gtrack_matrixSub                                                     
000237a5  rlSensorStart                                                        
000237d5  ti_sysbios_BIOS_startFunc__I                                         
00023805  gtrack_listInit                                                      
00023811  ti_sysbios_family_arm_TaskSupport_start__E                           
00023811  ti_sysbios_knl_Task_SupportProxy_start__E                            
00023841  ti_sysbios_gates_GateHwi_Object__create__S                           
00023871  ti_sysbios_gates_GateMutex_Object__create__S                         
000238a1  ti_sysbios_heaps_HeapMem_Object__create__S                           
000238d1  ti_sysbios_heaps_HeapMem_free__E                                     
00023901  ti_sysbios_knl_Semaphore_construct                                   
00023931  xdc_runtime_Text_printVisFxn__I                                      
0002398f  _DPC_Objdet_Assert                                                   
000239bd  ti_sysbios_BIOS_RtsGateProxy_leave__E                                
000239c1  ti_sysbios_knl_Semaphore_pendTimeout__I                              
000239ef  malloc                                                               
00023a1d  DPM_pipeInit                                                         
00023a49  DPU_TrackerProc_init                                                 
00023af9  MMWave_osalMutexCreate                                               
00023b25  MMWave_osalSemCreate                                                 
00023b51  SOC_waitBSSPowerUp                                                   
00023b7d  rlDeviceGetMssVersion                                                
00023ba9  rlSensorStop                                                         
00023bd5  remove                                                               
00023bd5  unlink                                                               
00023c01  ti_sysbios_BIOS_atExitFunc__I                                        
00023c2d  ti_sysbios_knl_Clock_doTick__I                                       
00023c59  ti_sysbios_knl_Queue_construct                                       
00023c85  mathUtils_floorLog2                                                  
00023c91  ti_sysbios_timers_rti_Timer_periodicStub__E                          
00023ce7  DPM_pipeDeinit                                                       
00023d3b  MmwDemo_ADCBufOpen                                                   
00023d65  SOC_SystemISR                                                        
00023d8f  rlDeviceGetMmWaveLinkVersion                                         
00023db9  strspn                                                               
00023e85  DPM_msgInitHeader                                                    
00023ead  DPU_RangeProcHWA_deinit                                              
00023ed5  Mailbox_Config_init                                                  
00023f4d  rlDriverConstructInMsg                                               
00023f75  sqrtf                                                                
00023f9d  lseek                                                                
00023fc5  write                                                                
00023fed  ti_sysbios_family_arm_TaskSupport_Module__startupDone__S             
00023fed  ti_sysbios_knl_Task_SupportProxy_Module__startupDone__S              
00023ff1  ti_sysbios_knl_Idle_run__E                                           
00024019  EDMA3GetErrIntrStatus                                                
00024021  xdc_runtime_SysStd_abort__E                                          
00024021  xdc_runtime_System_SupportProxy_abort__E                             
00024049  EDMA3QdmaGetErrIntrStatus                                            
00024051  xdc_runtime_System_aprintf_va__F                                     
00024079  gtrack_listEnqueue                                                   
0002409f  gtrack_vectorAdd                                                     
000240c5  gtrack_vectorSub                                                     
000240eb  mmwDemo_cfgRxSaturationMonitor                                       
00024111  rlRfAnaMonConfig                                                     
00024137  rlRfInitCalibConfig                                                  
0002415d  rlRfRunTimeCalibConfig                                               
00024183  rlRfRxIfSatMonConfig                                                 
000241a9  rlRfRxSigImgMonConfig                                                
000241cf  rlRfSetCalMonFreqLimitConfig                                         
000241f5  rlRfSetDeviceCfg                                                     
0002421b  rlRfSetLdoBypassConfig                                               
00024241  rlSetAdcOutConfig                                                    
00024267  rlSetBpmCommonConfig                                                 
0002428d  rlSetChannelConfig                                                   
000242b3  rlSetContModeConfig                                                  
000242d9  memcmp                                                               
00024301  xdc_runtime_System_printf_va__F                                      
00024329  _MmwDemo_debugAssert                                                 
00024375  EDMA3ClrEvt                                                          
00024399  EDMA3ClrIntr                                                         
000243bd  EDMA3DisableDmaEvt                                                   
000243e1  EDMA3DisableEvtIntr                                                  
00024405  EDMA3EnableDmaEvt                                                    
00024429  EDMA3EnableEvtIntr                                                   
000244b9  SOC_isDSSOperational                                                 
000244dd  SOC_isMMWaveDSSOperational                                           
00024501  SOC_isMMWaveMSSOperational                                           
00024525  gtrack_listDequeue                                                   
00024549  rlDeviceSetHsiClk                                                    
0002456d  rlEnableContMode                                                     
00024591  rlRfSetCalMonTimeUnitConfig                                          
000245b5  rlSetLowPowerModeConfig                                              
000245d9  ti_sysbios_BIOS_registerRTSLock__I                                   
000245fd  ti_sysbios_BIOS_removeRTSLock__I                                     
00024621  ti_sysbios_gates_GateMutex_Object__delete__S                         
00024645  ti_sysbios_family_arm_v7r_tms570_Core_getId__E                       
00024645  ti_sysbios_hal_Core_CoreProxy_getId__E                               
00024651  ti_sysbios_knl_Clock_Module_startup__E                               
00024675  ti_sysbios_knl_Semaphore_Object__delete__S                           
000246bb  QSPIFlashGetStatus                                                   
000246dd  UartSci_disableRxDMA                                                 
000246ff  UartSci_enableRxDMA                                                  
00024721  strcspn                                                              
00024743  DPM_listCat                                                          
00024765  EDMA3QdmaClrMissEvt                                                  
00024785  ESM_lowpriority_IRQ                                                  
000247c5  MMWave_listCat                                                       
00024805  gtrack_vectorScalarMulAcc                                            
00024825  rlRfInit                                                             
00024845  xdc_runtime_Memory_HeapProxy_alloc__E                                
00024851  ti_sysbios_family_arm_TaskSupport_stackUsed__E                       
00024851  ti_sysbios_knl_Task_SupportProxy_stackUsed__E                        
00024871  ti_sysbios_family_arm_a15_TimestampProvider_autoRefreshFxn__I        
00024891  ti_sysbios_family_arm_v7a_Pmu_Module_startup__E                      
000248b1  ti_sysbios_family_arm_v7r_vim_Hwi_Object__delete__S                  
000248d1  ti_sysbios_family_arm_v7r_vim_Hwi_disableInterrupt__E                
000248d1  ti_sysbios_hal_Hwi_HwiProxy_disableInterrupt__E                      
000248d1  ti_sysbios_hal_Hwi_disableInterrupt__E                               
000248f1  ti_sysbios_family_arm_v7r_vim_Hwi_enableInterrupt__E                 
000248f1  ti_sysbios_hal_Hwi_HwiProxy_enableInterrupt__E                       
000248f1  ti_sysbios_hal_Hwi_enableInterrupt__E                                
00024911  ti_sysbios_gates_GateHwi_Object__delete__S                           
00024931  ti_sysbios_heaps_HeapMem_Object__delete__S                           
00024951  ti_sysbios_knl_Semaphore_destruct                                    
00024971  xdc_runtime_LoggerBuf_Object__delete__S                              
000249cd  SOC_getOutAddr_LUTType                                               
000249eb  gtrack_matrixInit                                                    
00024a09  mmwDemo_cfgRxSigImgMonitor                                           
00024a27  ti_sysbios_BIOS_errorRaiseHook__I                                    
00024b95  DPM_listRemove                                                       
00024bb1  MMWave_listRemove                                                    
00024c05  SOC_getInAddr_LUTType                                                
00024c20  ti_sysbios_family_arm_TaskSupport_glue                               
00024c3c  ti_sysbios_family_arm_TaskSupport_swap__E                            
00024c3c  ti_sysbios_knl_Task_SupportProxy_swap__E                             
00024c59  gtrack_matrixGetDiag                                                 
00024c75  gtrack_vectorScalarMul                                               
00024c91  memccpy                                                              
00024cad  ti_sysbios_BIOS_rtsLock__I                                           
00024cc9  HwiP_restore                                                         
00024cd1  ti_sysbios_family_arm_v7r_vim_Hwi_clearInterrupt__E                  
00024cd1  ti_sysbios_hal_Hwi_HwiProxy_clearInterrupt__E                        
00024cd1  ti_sysbios_hal_Hwi_clearInterrupt__E                                 
00024ced  ti_sysbios_family_arm_v7r_vim_Hwi_delete                             
00024cf1  ti_sysbios_gates_GateMutex_Instance_init__E                          
00024d0d  ti_sysbios_heaps_HeapMem_Module_GateProxy_enter__E                   
00024d11  ti_sysbios_gates_GateMutex_leave__E                                  
00024d2d  ti_sysbios_knl_Queue_destruct                                        
00024d49  gtrack_log                                                           
00024d51  ti_sysbios_knl_Task_restoreHwi__E                                    
00024d6d  ti_sysbios_heaps_HeapMem_Module_GateProxy_leave__E                   
00024d71  xdc_runtime_LoggerBuf_Instance_finalize__E                           
00024d8d  CBUFF_finalizeLVDSLinkListParams                                     
00024dc1  DPM_listAdd                                                          
00024e29  EDMA3SetPaRAM                                                        
00024e43  MMWave_deviceSyncFxn                                                 
00024e5d  MMWave_encodeError                                                   
00024e77  MMWave_listAdd                                                       
00024e91  free                                                                 
00024eab  rlGetRfDieId                                                         
00024ec5  copysign                                                             
00024ec5  copysignl                                                            
00024edf  ti_sysbios_family_arm_a15_TimestampProvider_initCCNT__I              
00024ef9  xdc_runtime_System_aprintf__E                                        
00024f13  xdc_runtime_System_printf__E                                         
00024f45  CLI_getMMWaveExtensionOpenConfig                                     
00024f8d  EDMA3DisableQdmaEvt                                                  
00024fa5  EDMA3EnableQdmaEvt                                                   
00024fbd  MMWave_osalMutexLock                                                 
00024fd5  MMWave_osalSemWait                                                   
00025035  gtrack_alloc                                                         
0002504d  rlDeviceGetRfVersion                                                 
00025065  rlDriverCalCRC                                                       
0002507d  rlDriverFillPayload                                                  
00025095  _args_main                                                           
000250ad  strcmp                                                               
000250c5  ti_sysbios_BIOS_rtsUnlock__I                                         
000250dc  ti_sysbios_family_arm_v7a_Pmu_initCounters__I                        
000250f5  ti_sysbios_family_arm_v7r_vim_Hwi_Module__startupDone__F             
000250f5  ti_sysbios_family_arm_v7r_vim_Hwi_Module__startupDone__S             
000250f5  ti_sysbios_hal_Hwi_HwiProxy_Module__startupDone__S                   
0002510d  ti_sysbios_family_arm_v7r_vim_Hwi_Params__init__S                    
0002510d  ti_sysbios_hal_Hwi_HwiProxy_Params__init__S                          
00025125  ti_sysbios_gates_GateHwi_Handle__label__S                            
00025125  xdc_runtime_LoggerBuf_Module_GateProxy_Handle__label__S              
00025125  xdc_runtime_Main_Module_GateProxy_Handle__label__S                   
00025125  xdc_runtime_System_Module_GateProxy_Handle__label__S                 
0002513d  ti_sysbios_BIOS_RtsGateProxy_Handle__label__S                        
0002513d  ti_sysbios_gates_GateMutex_Handle__label__S                          
0002513d  ti_sysbios_heaps_HeapMem_Module_GateProxy_Handle__label__S           
00025155  ti_sysbios_heaps_HeapMem_Handle__label__S                            
00025155  xdc_runtime_Memory_HeapProxy_Handle__label__S                        
0002516d  ti_sysbios_knl_Semaphore_Params__init__S                             
00025185  ti_sysbios_knl_Task_Params__init__S                                  
0002519d  ti_sysbios_knl_Clock_TimerProxy_getMaxTicks__E                       
000251a1  ti_sysbios_knl_Task_enter__I                                         
000251b9  ti_sysbios_knl_Clock_TimerProxy_Module__startupDone__S               
000251b9  ti_sysbios_timers_rti_Timer_Module__startupDone__F                   
000251b9  ti_sysbios_timers_rti_Timer_Module__startupDone__S                   
000251d1  xdc_runtime_Error_init__E                                            
000251e9  xdc_runtime_LoggerBuf_Handle__label__S                               
00025201  CBUFF_shutdownTransfer                                               
0002522d  strchr                                                               
00025243  strlen                                                               
00025259  ti_sysbios_BIOS_exitFunc__I                                          
00025271  ti_sysbios_knl_Idle_loop__E                                          
00025287  xdc_runtime_Memory_HeapProxy_free__E                                 
00025291  ti_sysbios_knl_Task_sleepTimeout__I                                  
000252a7  CycleprofilerP_init                                                  
000252bd  EDMA3GetIntrStatus                                                   
000252d1  EDMA3IntrStatusHighGet                                               
000252e5  EDMA3MapQdmaChToPaRAM                                                
000252f9  HwiP_Params_init                                                     
00025335  MMWave_osalMutexDelete                                               
00025349  MMWave_osalSemDelete                                                 
0002535d  MmwDemo_RFParser_getNumSubFrames                                     
00025385  UartSci_disableTxDMA                                                 
00025399  UartSci_enableTxDMA                                                  
000253ad  _DebugP_assert                                                       
000253c1  mathUtils_ceilLog2                                                   
000253d5  rlAppendDummy                                                        
000253e9  rlDriverIsDeviceMapValid                                             
000253fd  _register_unlock                                                     
00025403  _register_lock                                                       
0002540b  _nop                                                                 
00025411  strcpy                                                               
00025425  ti_sysbios_heaps_HeapMem_Object__get__S                              
00025439  xdc_runtime_LoggerBuf_Object__get__S                                 
0002544d  CRC_initConfigParams                                                 
0002545f  EDMA3SetQdmaTrigWord                                                 
00025471  MMWave_deviceGetDeviceInfo                                           
00025483  MemoryP_ctrlAlloc                                                    
00025495  SemaphoreP_pend                                                      
000254a7  mathUtils_pow2roundup                                                
000254b9  copysignf                                                            
000254cb  rlGetSubBlockId                                                      
000254d1  ti_sysbios_hal_Hwi_Module_startup__E                                 
000254e3  SemaphoreP_delete                                                    
000254f1  xdc_runtime_LoggerBuf_write1__E                                      
00025503  __TI_decompress_none                                                 
00025511  xdc_runtime_LoggerBuf_write2__E                                      
00025523  xdc_runtime_Startup_exec__I                                          
00025535  ADCBuf_Params_init                                                   
00025545  CLI_getMMWaveExtensionConfig                                         
00025565  QSPIFlashWriteCmd                                                    
00025575  QSPI_Params_init                                                     
00025585  gtrack_free                                                          
00025595  gtrack_vectorInit                                                    
000255a5  xdc_runtime_Memory_HeapProxy_getStats__E                             
000255b1  ti_sysbios_BIOS_getCpuFreq__E                                        
000255b1  ti_sysbios_family_arm_a15_TimestampProvider_getFreq__E               
000255b1  xdc_runtime_LoggerBuf_TimestampProxy_getFreq__E                      
000255b1  xdc_runtime_Timestamp_SupportProxy_getFreq__E                        
000255b1  xdc_runtime_Timestamp_getFreq__E                                     
000255c1  ti_sysbios_BIOS_setThreadType__E                                     
000255d1  ti_sysbios_BIOS_start__E                                             
000255e1  ti_sysbios_family_arm_a15_TimestampProvider_Module_startup__E        
000255f0  ti_sysbios_family_arm_v7a_Pmu_disableInterruptI__E                   
00025600  ti_sysbios_family_arm_v7a_Pmu_enableInterruptI__E                    
00025610  ti_sysbios_family_arm_v7a_Pmu_getNumCounters__E                      
00025620  ti_sysbios_family_arm_v7a_Pmu_startCounterI__E                       
00025630  ti_sysbios_family_arm_v7a_Pmu_stopCounterI__E                        
00025641  ti_sysbios_gates_GateMutex_Instance_finalize__E                      
00025651  ti_sysbios_heaps_HeapBuf_Object__get__S                              
00025661  ti_sysbios_knl_Semaphore_Instance_finalize__E                        
00025671  ti_sysbios_knl_Task_Object__get__S                                   
00025681  ti_sysbios_knl_Task_disable__E                                       
00025691  xdc_runtime_LoggerBuf_write0__E                                      
000256a1  xdc_runtime_Memory_free__E                                           
000256b1  xdc_runtime_Memory_getStats__E                                       
000256c1  gtrack_unitGetH                                                      
000256cf  ti_sysbios_family_arm_a15_TimestampProvider_getOverflowCCNT__I       
000256dd  ti_sysbios_knl_Semaphore_delete                                      
000256e1  ti_sysbios_knl_Queue_empty__E                                        
000256f1  ti_sysbios_family_arm_TaskSupport_checkStack__E                      
000256f1  ti_sysbios_knl_Task_SupportProxy_checkStack__E                       
000256fd  xdc_runtime_LoggerBuf_Module_GateProxy_enter__E                      
00025701  ti_sysbios_family_arm_TaskSupport_getStackAlignment__E               
00025701  ti_sysbios_knl_Task_SupportProxy_getStackAlignment__E                
0002570d  xdc_runtime_LoggerBuf_Module_GateProxy_leave__E                      
00025711  ti_sysbios_family_arm_exc_Exception_Module_startup__E                
0002571d  xdc_runtime_System_Module_GateProxy_enter__E                         
00025721  ti_sysbios_family_arm_v7r_vim_Hwi_switchFromBootStack__E             
00025721  ti_sysbios_hal_Hwi_HwiProxy_switchFromBootStack__E                   
00025721  ti_sysbios_hal_Hwi_switchFromBootStack__E                            
0002572d  xdc_runtime_System_Module_GateProxy_leave__E                         
00025731  ti_sysbios_utils_Load_getCPULoad__E                                  
00025741  ti_sysbios_utils_Load_taskRegHook__E                                 
00025751  xdc_runtime_Startup_rtsDone__E                                       
00025761  xdc_runtime_SysStd_exit__E                                           
00025761  xdc_runtime_System_SupportProxy_exit__E                              
00025771  xdc_runtime_LoggerBuf_disable__E                                     
0002577b  rlGetSubBlockLen                                                     
00025781  xdc_runtime_LoggerBuf_enable__E                                      
0002578b  ti_sysbios_family_arm_a15_TimestampProvider_get32__E                 
0002578b  xdc_runtime_LoggerBuf_TimestampProxy_get32__E                        
0002578b  xdc_runtime_Timestamp_SupportProxy_get32__E                          
0002578b  xdc_runtime_Timestamp_get32__E                                       
00025791  ti_sysbios_gates_GateHwi_enter__E                                    
000257a1  ti_sysbios_family_arm_v7r_vim_Hwi_startup__E                         
000257a1  ti_sysbios_hal_Hwi_HwiProxy_startup__E                               
000257a1  ti_sysbios_hal_Hwi_startup__E                                        
000257b1  ti_sysbios_gates_GateHwi_leave__E                                    
000257c1  ti_sysbios_heaps_HeapMem_isBlocking__E                               
000257d1  ti_sysbios_knl_Queue_Instance_init__E                                
000257e1  xdc_runtime_System_Module_startup__E                                 
000257f1  ti_sysbios_gates_GateHwi_query__E                                    
000257f1  xdc_runtime_LoggerBuf_Module_GateProxy_query__E                      
000257f1  xdc_runtime_Main_Module_GateProxy_query__E                           
000257f1  xdc_runtime_System_Module_GateProxy_query__E                         
00025801  ti_sysbios_BIOS_RtsGateProxy_query__E                                
00025801  ti_sysbios_gates_GateMutex_query__E                                  
00025801  ti_sysbios_heaps_HeapMem_Module_GateProxy_query__E                   
00025811  ti_sysbios_knl_Task_startup__E                                       
00025821  ti_sysbios_timers_rti_Timer_getMaxTicks__E                           
00025831  xdc_runtime_SysStd_putch__E                                          
00025831  xdc_runtime_System_SupportProxy_putch__E                             
00025841  xdc_runtime_SysStd_ready__E                                          
00025841  xdc_runtime_System_SupportProxy_ready__E                             
00025851  ti_sysbios_BIOS_linkedWithIncorrectBootLibrary__E                    
00025861  ti_sysbios_gates_GateHwi_Instance_init__E                            
000263b8  defaultStateParams                                                   
000263c4  defaultVariationParams                                               
000263d4  defaultGatingParams                                                  
000263e8  defaultAllocationParams                                              
00026400  defaultSceneryParams                                                 
00026b0e  ti_sysbios_family_arm_exc_Exception_Module__id__C                    
00026f20  _ctypes_                                                             
00027021  xdc_runtime_Text_charTab__A                                          
00027022  ti_sysbios_family_arm_v7a_Pmu_Module__id__C                          
000271e8  ti_sysbios_family_arm_v7r_vim_Hwi_channelMap__A                      
000272c0  ti_sysbios_knl_Task_Object__PARAMS__C                                
00027344  UART_defaultParams                                                   
00027380  xdc_runtime_LoggerBuf_Module__FXNS__C                                
000273bc  gEdmaHwAttrs                                                         
00027458  ti_sysbios_family_arm_v7r_vim_Hwi_Object__PARAMS__C                  
00027488  xdc_runtime_Startup_sfxnTab__A                                       
000274b8  gDPMMessageFxnTable                                                  
000274e0  ti_sysbios_heaps_HeapMem_Module__FXNS__C                             
00027508  xdc_runtime_LoggerBuf_Object__PARAMS__C                              
00027530  Mailbox_defaultCfg                                                   
00027554  pInit                                                                
00027578  ti_sysbios_gates_GateHwi_Module__FXNS__C                             
0002759c  ti_sysbios_gates_GateMutex_Module__FXNS__C                           
000275c0  ti_sysbios_heaps_HeapMem_Object__PARAMS__C                           
000275e4  ti_sysbios_knl_Semaphore_Object__PARAMS__C                           
00027648  ti_sysbios_family_arm_v7r_vim_Hwi_Object__DESC__C                    
00027668  ti_sysbios_gates_GateHwi_Object__DESC__C                             
00027688  ti_sysbios_gates_GateMutex_Object__DESC__C                           
000276a8  ti_sysbios_heaps_HeapMem_Object__DESC__C                             
000276c8  ti_sysbios_knl_Queue_Object__DESC__C                                 
000276e8  ti_sysbios_knl_Semaphore_Object__DESC__C                             
00027708  ti_sysbios_knl_Task_Object__DESC__C                                  
00027728  xdc_runtime_LoggerBuf_Object__DESC__C                                
00027760  ti_sysbios_gates_GateHwi_Object__PARAMS__C                           
00027778  ti_sysbios_gates_GateMutex_Object__PARAMS__C                         
00027790  ti_sysbios_knl_Queue_Object__PARAMS__C                               
000277a8  ti_sysbios_knl_Task_hooks__A                                         
000277c0  xdc_runtime_Startup_sfxnRts__A                                       
000277d8  gADCBufFxnTable                                                      
000277ec  ADCBuf_defaultParams                                                 
0002780c  QSPI_defaultParams                                                   
0002781c  gADCBufHwCfg                                                         
0002782c  spreadInit                                                           
0002783c  spreadMin                                                            
0002784c  ti_sysbios_family_arm_v7r_vim_Hwi_intReqEnaSet__A                    
0002785c  ti_sysbios_family_arm_v7r_vim_Hwi_wakeEnaSet__A                      
0002786c  ti_sysbios_knl_Idle_funcList__A                                      
00027878  ti_sysbios_knl_Idle_funcList__C                                      
00027880  ti_sysbios_knl_Task_hooks__C                                         
00027888  xdc_runtime_Startup_firstFxns__A                                     
00027890  xdc_runtime_Startup_firstFxns__C                                     
00027898  xdc_runtime_Startup_lastFxns__C                                      
000278a0  ti_sysbios_family_arm_TaskSupport_stackAlignment__C                  
000278a4  ti_sysbios_family_arm_exc_Exception_E_dataAbort__C                   
000278a8  ti_sysbios_family_arm_exc_Exception_E_prefetchAbort__C               
000278ac  ti_sysbios_family_arm_exc_Exception_E_swi__C                         
000278b0  ti_sysbios_family_arm_exc_Exception_E_undefinedInstruction__C        
000278b4  ti_sysbios_family_arm_exc_Exception_excHookFuncs__A                  
000278b8  ti_sysbios_family_arm_exc_Exception_excHookFuncs__C                  
000278bc  ti_sysbios_family_arm_v7a_Pmu_A_invalidCounterId__C                  
000278c0  ti_sysbios_family_arm_v7a_Pmu_Module__diagsEnabled__C                
000278c4  ti_sysbios_family_arm_v7a_Pmu_Module__diagsIncluded__C               
000278c8  ti_sysbios_family_arm_v7a_Pmu_Module__diagsMask__C                   
000278cc  ti_sysbios_family_arm_v7r_tms570_Core_E_mismatchedIds__C             
000278d0  ti_sysbios_family_arm_v7r_tms570_Core_id__C                          
000278d4  ti_sysbios_family_arm_v7r_vim_Hwi_A_badChannelId__C                  
000278d8  ti_sysbios_family_arm_v7r_vim_Hwi_E_alreadyDefined__C                
000278dc  ti_sysbios_family_arm_v7r_vim_Hwi_E_badIntNum__C                     
000278e0  ti_sysbios_family_arm_v7r_vim_Hwi_E_phantomInterrupt__C              
000278e4  ti_sysbios_family_arm_v7r_vim_Hwi_E_undefined__C                     
000278e8  ti_sysbios_family_arm_v7r_vim_Hwi_E_unsupportedMaskingOption__C      
000278ec  ti_sysbios_family_arm_v7r_vim_Hwi_LD_end__C                          
000278f0  ti_sysbios_family_arm_v7r_vim_Hwi_LM_begin__C                        
000278f4  ti_sysbios_family_arm_v7r_vim_Hwi_Module__diagsEnabled__C            
000278f8  ti_sysbios_family_arm_v7r_vim_Hwi_Module__diagsIncluded__C           
000278fc  ti_sysbios_family_arm_v7r_vim_Hwi_Module__diagsMask__C               
00027900  ti_sysbios_family_arm_v7r_vim_Hwi_Module__loggerFxn1__C              
00027904  ti_sysbios_family_arm_v7r_vim_Hwi_Module__loggerFxn8__C              
00027908  ti_sysbios_family_arm_v7r_vim_Hwi_Module__loggerObj__C               
0002790c  ti_sysbios_family_arm_v7r_vim_Hwi_NUM_INTERRUPTS__C                  
00027910  ti_sysbios_family_arm_v7r_vim_Hwi_channelMap__C                      
00027914  ti_sysbios_family_arm_v7r_vim_Hwi_intReqEnaSet__C                    
00027918  ti_sysbios_family_arm_v7r_vim_Hwi_phantomFunc__C                     
0002791c  ti_sysbios_family_arm_v7r_vim_Hwi_taskDisable__C                     
00027920  ti_sysbios_family_arm_v7r_vim_Hwi_taskRestoreHwi__C                  
00027924  ti_sysbios_family_arm_v7r_vim_Hwi_wakeEnaSet__C                      
00027928  ti_sysbios_gates_GateMutex_A_badContext__C                           
0002792c  ti_sysbios_gates_GateMutex_Instance_State_sem__O                     
00027930  ti_sysbios_gates_GateMutex_Module__diagsEnabled__C                   
00027934  ti_sysbios_gates_GateMutex_Module__diagsIncluded__C                  
00027938  ti_sysbios_gates_GateMutex_Module__diagsMask__C                      
0002793c  ti_sysbios_hal_Hwi_E_stackOverflow__C                                
00027940  ti_sysbios_heaps_HeapBuf_Instance_State_freeList__O                  
00027944  ti_sysbios_heaps_HeapBuf_Object__count__C                            
00027948  ti_sysbios_heaps_HeapBuf_numConstructedHeaps__C                      
0002794c  ti_sysbios_heaps_HeapMem_A_align__C                                  
00027950  ti_sysbios_heaps_HeapMem_A_heapSize__C                               
00027954  ti_sysbios_heaps_HeapMem_A_invalidFree__C                            
00027958  ti_sysbios_heaps_HeapMem_A_zeroBlock__C                              
0002795c  ti_sysbios_heaps_HeapMem_E_memory__C                                 
00027960  ti_sysbios_heaps_HeapMem_Module__diagsEnabled__C                     
00027964  ti_sysbios_heaps_HeapMem_Module__diagsIncluded__C                    
00027968  ti_sysbios_heaps_HeapMem_Module__diagsMask__C                        
0002796c  ti_sysbios_heaps_HeapMem_Module__gateObj__C                          
00027970  ti_sysbios_heaps_HeapMem_Object__count__C                            
00027974  ti_sysbios_heaps_HeapMem_reqAlign__C                                 
00027978  ti_sysbios_knl_Clock_LM_begin__C                                     
0002797c  ti_sysbios_knl_Clock_LM_tick__C                                      
00027980  ti_sysbios_knl_Clock_LW_delayed__C                                   
00027984  ti_sysbios_knl_Clock_Module_State_clockQ__O                          
00027988  ti_sysbios_knl_Clock_Module__diagsEnabled__C                         
0002798c  ti_sysbios_knl_Clock_Module__diagsIncluded__C                        
00027990  ti_sysbios_knl_Clock_Module__diagsMask__C                            
00027994  ti_sysbios_knl_Clock_Module__loggerFxn1__C                           
00027998  ti_sysbios_knl_Clock_Module__loggerFxn2__C                           
0002799c  ti_sysbios_knl_Clock_Module__loggerObj__C                            
000279a0  ti_sysbios_knl_Semaphore_A_badContext__C                             
000279a4  ti_sysbios_knl_Semaphore_A_noEvents__C                               
000279a8  ti_sysbios_knl_Semaphore_A_overflow__C                               
000279ac  ti_sysbios_knl_Semaphore_A_pendTaskDisabled__C                       
000279b0  ti_sysbios_knl_Semaphore_Instance_State_pendQ__O                     
000279b4  ti_sysbios_knl_Semaphore_LM_pend__C                                  
000279b8  ti_sysbios_knl_Semaphore_LM_post__C                                  
000279bc  ti_sysbios_knl_Semaphore_Module__diagsEnabled__C                     
000279c0  ti_sysbios_knl_Semaphore_Module__diagsIncluded__C                    
000279c4  ti_sysbios_knl_Semaphore_Module__diagsMask__C                        
000279c8  ti_sysbios_knl_Semaphore_Module__loggerFxn2__C                       
000279cc  ti_sysbios_knl_Semaphore_Module__loggerFxn4__C                       
000279d0  ti_sysbios_knl_Semaphore_Module__loggerObj__C                        
000279d4  ti_sysbios_knl_Task_A_badPriority__C                                 
000279d8  ti_sysbios_knl_Task_A_badTaskState__C                                
000279dc  ti_sysbios_knl_Task_A_badThreadType__C                               
000279e0  ti_sysbios_knl_Task_A_badTimeout__C                                  
000279e4  ti_sysbios_knl_Task_A_noPendElem__C                                  
000279e8  ti_sysbios_knl_Task_A_sleepTaskDisabled__C                           
000279ec  ti_sysbios_knl_Task_E_spOutOfBounds__C                               
000279f0  ti_sysbios_knl_Task_E_stackOverflow__C                               
000279f4  ti_sysbios_knl_Task_LD_block__C                                      
000279f8  ti_sysbios_knl_Task_LD_exit__C                                       
000279fc  ti_sysbios_knl_Task_LD_ready__C                                      
00027a00  ti_sysbios_knl_Task_LM_sleep__C                                      
00027a04  ti_sysbios_knl_Task_LM_switch__C                                     
00027a08  ti_sysbios_knl_Task_Module_State_inactiveQ__O                        
00027a0c  ti_sysbios_knl_Task_Module__diagsEnabled__C                          
00027a10  ti_sysbios_knl_Task_Module__diagsIncluded__C                         
00027a14  ti_sysbios_knl_Task_Module__diagsMask__C                             
00027a18  ti_sysbios_knl_Task_Module__loggerFxn2__C                            
00027a1c  ti_sysbios_knl_Task_Module__loggerFxn4__C                            
00027a20  ti_sysbios_knl_Task_Module__loggerObj__C                             
00027a24  ti_sysbios_knl_Task_Object__count__C                                 
00027a28  ti_sysbios_knl_Task_Object__heap__C                                  
00027a2c  ti_sysbios_knl_Task_allBlockedFunc__C                                
00027a30  ti_sysbios_knl_Task_defaultStackHeap__C                              
00027a34  ti_sysbios_knl_Task_defaultStackSize__C                              
00027a38  ti_sysbios_knl_Task_numConstructedTasks__C                           
00027a3c  ti_sysbios_timers_rti_Timer_E_cannotSupport__C                       
00027a40  ti_sysbios_timers_rti_Timer_Module__diagsEnabled__C                  
00027a44  ti_sysbios_timers_rti_Timer_Module__diagsIncluded__C                 
00027a48  ti_sysbios_timers_rti_Timer_Module__diagsMask__C                     
00027a4c  ti_sysbios_timers_rti_Timer_numTimerDevices__C                       
00027a50  ti_sysbios_timers_rti_Timer_startupNeeded__C                         
00027a54  ti_sysbios_utils_Load_LS_cpuLoad__C                                  
00027a58  ti_sysbios_utils_Load_LS_taskLoad__C                                 
00027a5c  ti_sysbios_utils_Load_Module_State_taskList__O                       
00027a60  ti_sysbios_utils_Load_Module__diagsEnabled__C                        
00027a64  ti_sysbios_utils_Load_Module__diagsIncluded__C                       
00027a68  ti_sysbios_utils_Load_Module__diagsMask__C                           
00027a6c  ti_sysbios_utils_Load_Module__loggerFxn1__C                          
00027a70  ti_sysbios_utils_Load_Module__loggerFxn4__C                          
00027a74  ti_sysbios_utils_Load_Module__loggerObj__C                           
00027a78  ti_sysbios_utils_Load_postUpdate__C                                  
00027a7c  ti_sysbios_utils_Load_windowInMs__C                                  
00027a80  xdc_runtime_Assert_E_assertFailed__C                                 
00027a84  xdc_runtime_Core_A_initializedParams__C                              
00027a88  xdc_runtime_Core_Module__diagsEnabled__C                             
00027a8c  xdc_runtime_Core_Module__diagsIncluded__C                            
00027a90  xdc_runtime_Core_Module__diagsMask__C                                
00027a94  xdc_runtime_Error_E_memory__C                                        
00027a98  xdc_runtime_Error_Module__diagsEnabled__C                            
00027a9c  xdc_runtime_Error_Module__diagsIncluded__C                           
00027aa0  xdc_runtime_Error_Module__diagsMask__C                               
00027aa4  xdc_runtime_Error_Module__loggerFxn8__C                              
00027aa8  xdc_runtime_Error_Module__loggerObj__C                               
00027aac  xdc_runtime_Error_policyFxn__C                                       
00027ab0  xdc_runtime_Error_policy__C                                          
00027ab4  xdc_runtime_Error_raiseHook__C                                       
00027ab8  xdc_runtime_IFilterLogger_Interface__BASE__C                         
00027abc  xdc_runtime_IGateProvider_Interface__BASE__C                         
00027ac0  xdc_runtime_IHeap_Interface__BASE__C                                 
00027ac4  xdc_runtime_ILogger_Interface__BASE__C                               
00027ac8  xdc_runtime_IModule_Interface__BASE__C                               
00027acc  xdc_runtime_Log_L_error__C                                           
00027ad0  xdc_runtime_LoggerBuf_E_badLevel__C                                  
00027ad4  xdc_runtime_LoggerBuf_Module__gateObj__C                             
00027ad8  xdc_runtime_LoggerBuf_Object__count__C                               
00027adc  xdc_runtime_LoggerBuf_statusLogger__C                                
00027ae0  xdc_runtime_Main_Module__diagsEnabled__C                             
00027ae4  xdc_runtime_Main_Module__diagsIncluded__C                            
00027ae8  xdc_runtime_Main_Module__diagsMask__C                                
00027aec  xdc_runtime_Main_Module__loggerFxn1__C                               
00027af0  xdc_runtime_Main_Module__loggerFxn2__C                               
00027af4  xdc_runtime_Main_Module__loggerFxn4__C                               
00027af8  xdc_runtime_Main_Module__loggerObj__C                                
00027afc  xdc_runtime_Memory_defaultHeapInstance__C                            
00027b00  xdc_runtime_Startup_execImpl__C                                      
00027b04  xdc_runtime_Startup_maxPasses__C                                     
00027b08  xdc_runtime_Startup_sfxnRts__C                                       
00027b0c  xdc_runtime_Startup_sfxnTab__C                                       
00027b10  xdc_runtime_System_Module__gateObj__C                                
00027b14  xdc_runtime_System_abortFxn__C                                       
00027b18  xdc_runtime_System_exitFxn__C                                        
00027b1c  xdc_runtime_System_extendFxn__C                                      
00027b20  xdc_runtime_System_maxAtexitHandlers__C                              
00027b24  xdc_runtime_Text_charTab__C                                          
00027b28  xdc_runtime_Text_nameEmpty__C                                        
00027b2c  xdc_runtime_Text_nameStatic__C                                       
00027b30  xdc_runtime_Text_nameUnknown__C                                      
00027b34  xdc_runtime_Text_visitRopeFxn__C                                     
00027b38  ti_sysbios_family_arm_v7r_tms570_Core_Module__id__C                  
00027b3a  ti_sysbios_family_arm_v7r_vim_Hwi_Module__id__C                      
00027b3c  ti_sysbios_family_arm_v7r_vim_Hwi_Module__loggerDefined__C           
00027b3e  ti_sysbios_gates_GateMutex_Module__id__C                             
00027b40  ti_sysbios_hal_Hwi_Module__id__C                                     
00027b42  ti_sysbios_heaps_HeapMem_Module__id__C                               
00027b44  ti_sysbios_knl_Clock_Module__id__C                                   
00027b46  ti_sysbios_knl_Clock_Module__loggerDefined__C                        
00027b48  ti_sysbios_knl_Semaphore_Module__id__C                               
00027b4a  ti_sysbios_knl_Semaphore_Module__loggerDefined__C                    
00027b4c  ti_sysbios_knl_Task_Module__id__C                                    
00027b4e  ti_sysbios_knl_Task_Module__loggerDefined__C                         
00027b50  ti_sysbios_timers_rti_Timer_Module__id__C                            
00027b52  ti_sysbios_timers_rti_Timer_continueOnSuspend__C                     
00027b54  ti_sysbios_utils_Load_Module__id__C                                  
00027b56  ti_sysbios_utils_Load_Module__loggerDefined__C                       
00027b58  ti_sysbios_utils_Load_autoAddTasks__C                                
00027b5a  ti_sysbios_utils_Load_updateInIdle__C                                
00027b5c  xdc_runtime_Core_Module__id__C                                       
00027b5e  xdc_runtime_Error_Module__loggerDefined__C                           
00027b60  xdc_runtime_Error_maxDepth__C                                        
00027b62  xdc_runtime_LoggerBuf_Module__id__C                                  
00027b64  xdc_runtime_LoggerBuf_filterByLevel__C                               
00027b66  xdc_runtime_Main_Module__id__C                                       
00027b68  xdc_runtime_Main_Module__loggerDefined__C                            
00027b6a  xdc_runtime_Memory_Module__id__C                                     
00027b6c  xdc_runtime_Text_charCnt__C                                          
00027b6e  xdc_runtime_Text_isLoaded__C                                         
00027b70  xdc_runtime_Text_registryModsLastId__C                               
00027b72  xdc_runtime_Text_unnamedModsLastId__C                                
00027b78  __TI_static_base__                                                   
00028168  __TI_Handler_Table_Base                                              
00028174  __TI_Handler_Table_Limit                                             
000281a0  __TI_CINIT_Base                                                      
000281d0  __TI_CINIT_Limit                                                     
08000000  ti_sysbios_heaps_HeapMem_Instance_State_0_buf__A                     
0801b000  xdc_runtime_LoggerBuf_Instance_State_0_entryArr__A                   
0801c900  ti_sysbios_family_arm_exc_Exception_Module_State_0_excStack_0__A     
0801d900  edmaDbg                                                              
0801dde8  ti_sysbios_knl_Task_Instance_State_0_stack__A                        
0801e108  gCLI                                                                 
0801e2b0  gGPIOMCB                                                             
0801e444  __CIOBUF_                                                            
0801e564  gMMWave_MCB                                                          
0801e664  __TI_tmpnams                                                         
0801e704  gObjDetObj                                                           
0801e708  gHSIHeaderMCB                                                        
0801e798  gEsmMCB                                                              
0801e808  gMMWave_DualcoreMCB                                                  
0801e810  parmbuf                                                              
0801e818  ti_sysbios_knl_Task_Instance_State_0_hookEnv__A                      
0801e820  qspiHandle                                                           
0801e824  qspiflashHandle                                                      
0801e828  gRFLdoBypassCfg                                                      
0801e82c  gtsIdx                                                               
0801e830  gts                                                                  
0801e9c0  gMmwMssMCB                                                           
0801f3f0  rl_txMsg                                                             
0801f4f0  rl_rxMsg                                                             
0801f7d8  gCLI_mmwave_freq_scale_factor                                        
0801f7e0  gCLIMMWaveOpenCfg                                                    
0801f808  gCLIMMWaveExtensionTable                                             
0801f8b0  gCLIMMWaveControlCfg                                                 
0801f97c  partInfoStringArray                                                  
0801fb40  appStateParamTable                                                   
0801fb68  appVariationParamTable                                               
0801fba8  appGatingParamTable                                                  
0801fbf8  appAllocationParamTable                                              
0801fc58  appSceneryParamTable                                                 
0801fdf8  ti_sysbios_family_arm_v7r_vim_Hwi_Module_State_0_dispatchTable__A    
0801fff8  _ftable                                                              
080200e8  ti_sysbios_utils_Load_Module__state__V                               
08020180  ti_sysbios_knl_Task_Module_State_0_readyQ__A                         
08020200  _device                                                              
08020278  gCBUFFHwAttribute                                                    
080202f0  ti_sysbios_knl_Task_Object__table__V                                 
0802034c  gUartSciHwCfg                                                        
080203a4  _stream                                                              
080203f4  gMailboxMCB                                                          
08020444  ti_sysbios_knl_Task_Module__state__V                                 
0802048c  SOC_TranslateAddr_LUT                                                
080204cc  ti_sysbios_gates_GateMutex_Object__table__V                          
0802050c  ti_sysbios_timers_rti_Timer_Object__table__V                         
08020548  gCBUFFInterfaceFxn                                                   
08020580  ti_sysbios_family_arm_v7r_vim_Hwi_Module__state__V                   
080205b4  gHWAHwCfg                                                            
080205e4  ti_sysbios_family_arm_v7r_vim_Hwi_Object__table__V                   
08020610  ti_sysbios_knl_Clock_Module__state__V                                
0802063c  gUartSciFxnTable                                                     
08020664  UART_config                                                          
08020688  gDPC_ObjDetRangeHWACfg                                               
080206ac  ti_sysbios_BIOS_Module__state__V                                     
080206d0  xdc_runtime_LoggerBuf_Object__table__V                               
080206f4  gHWADriverPtr                                                        
080206f8  gSOCHwAttrib                                                         
08020718  ti_sysbios_knl_Clock_Object__table__V                                
08020738  xdc_runtime_Error_IgnoreBlock                                        
08020758  xdc_runtime_System_Module_State_0_atexitHandlers__A                  
08020778  ti_sysbios_utils_Load_Module_State_0_taskEnv__A                      
08020794  ADCBuf_config                                                        
080207ac  gInterleavedTransferFxn                                              
080207c4  gMailboxMssBssHwCfg                                                  
080207dc  gMailboxMssDssHwCfg                                                  
080207f4  gMultipleChirpNonInterleavedTransferFxn                              
0802080c  gNonInterleavedTransferFxn                                           
08020824  ti_sysbios_heaps_HeapMem_Object__table__V                            
0802083c  ti_sysbios_timers_rti_Timer_Module_State_0_device__A                 
08020854  gDPMRemoteTable                                                      
08020868  ti_sysbios_family_arm_exc_Exception_Module__state__V                 
0802087c  gHwaEDMAChanMapping                                                  
0802088c  gQSPIHwCfg                                                           
0802089c  __TI_ft_end                                                          
080208a0  __aeabi_stdin                                                        
080208a4  __aeabi_stdout                                                       
080208a8  __aeabi_stderr                                                       
080208ac  ti_sysbios_timers_rti_Timer_Module_State_0_intFreqs__A               
080208bc  ti_sysbios_timers_rti_Timer_Module__state__V                         
080208cc  __TI_cleanup_ptr                                                     
080208d0  __TI_dtors_ptr                                                       
080208d4  __TI_enable_exit_profile_output                                      
080208d8  gESMHwCfgAttrs                                                       
080208e4  ti_sysbios_family_arm_v7a_Pmu_Module__state__V                       
080208f0  ti_sysbios_knl_Task_Module__root__V                                  
080208fc  _lock                                                                
08020900  _unlock                                                              
08020904  MmwDemo_RFParserHwCfg                                                
0802090c  QSPIFlash_deviceFxnTbl_macronix                                      
08020914  QSPIFlash_deviceFxnTbl_spansion                                      
0802091c  gDPMHwAttrib                                                         
08020924  gGPIOHwAtrrib                                                        
0802092c  ti_sysbios_family_arm_v7r_vim_Hwi_Module__root__V                    
08020934  ti_sysbios_gates_GateHwi_Module__root__V                             
0802093c  ti_sysbios_gates_GateMutex_Module__root__V                           
08020944  ti_sysbios_hal_Hwi_Object__table__V                                  
0802094c  ti_sysbios_heaps_HeapMem_Module__root__V                             
08020954  ti_sysbios_knl_Queue_Module__root__V                                 
0802095c  ti_sysbios_knl_Semaphore_Module__root__V                             
08020964  ti_sysbios_timers_rti_Timer_Module_State_0_handles__A                
0802096c  xdc_runtime_LoggerBuf_Module__root__V                                
08020974  xdc_runtime_Registry_Module__state__V                                
0802097c  xdc_runtime_Startup_Module__state__V                                 
08020984  xdc_runtime_System_Module__state__V                                  
0802098c  xdc_runtime_LoggerBuf_Module__state__V                               
08020992  ti_sysbios_family_arm_exc_Exception_Module_State_0_excActive__A      
08020994  gQSPIFlashHwCfg                                                      
0802099c  gCRCRegister                                                         
080209a0  gDPM                                                                 
080209a4  regionId                                                             
080209a8  gPinmuxRegs                                                          
080209ac  gQSPIDriverPtr                                                       
080209b4  errno                                                                
080209c0  main_func_sp                                                         
080209c8  ti_sysbios_family_arm_a15_TimestampProvider_Module__state__V         
080209cc  ti_sysbios_family_arm_exc_Exception_Module_State_0_excContext__A     
080209d0  ti_sysbios_family_arm_exc_Exception_Module_State_0_excStackBuffers__A
080209d4  ti_sysbios_family_arm_exc_Exception_Module_State_0_excStack__A       
080209d8  ti_sysbios_gates_GateHwi_Object__table__V                            
080209dc  ti_sysbios_heaps_HeapBuf_Module__state__V                            
080209e0  ti_sysbios_knl_Task_Module_State_0_idleTask__A                       
080209e4  ti_sysbios_utils_Load_Module_State_0_runningTask__A                  
080209e8  ti_sysbios_utils_Load_Module_State_0_taskStartTime__A                
080209ec  gGtrackMemoryUsed                                                    
080209f0  xdc_runtime_Memory_Module__state__V                                  
080209f4  xdc_runtime_Error_Module__state__V                                   
080209f6  xdc_runtime_Main_Module__root__V                                     
080209f8  gDPCTCM                                                              
080219f8  ti_sysbios_family_arm_v7r_vim_Hwi_Module_State_0_fiqStack__A         
080221f8  __stack                                                              
080229f8  __STACK_END                                                          
51000000  gMmwL3                                                               
fffffdec  ti_sysbios_family_arm_v7r_vim_Hwi_vim                                
ffffffff  __TI_pprof_out_hndl                                                  
ffffffff  __TI_prof_data_size                                                  
ffffffff  __TI_prof_data_start                                                 
ffffffff  __binit__                                                            
ffffffff  __c_args__                                                           
ffffffff  binit                                                                
UNDEFED   SHT$$INIT_ARRAY$$Base                                                
UNDEFED   SHT$$INIT_ARRAY$$Limit                                               

[1261 symbols]
